(dp0
S'3088'
p1
(dp2
Vkamasutra
p3
(lp4
S'price'
p5
assS'3258'
p6
(dp7
Vrestaurants
p8
(lp9
S'service'
p10
assS'3250'
p11
(dp12
Vliving
p13
(lp14
S'food'
p15
assS'3254'
p16
(dp17
Vfood
p18
(lp19
S'food'
p20
assS'3558'
p21
(dp22
Vdishes
p23
(lp24
S'service'
p25
assS'346'
p26
(dp27
Vis
p28
(lp29
S'food'
p30
aS'atmosphere'
p31
asVplace
p32
(lp33
g31
assS'341'
p34
(dp35
Vseasoning
p36
(lp37
S'food'
p38
asVbland
p39
(lp40
g38
asVsushi
p41
(lp42
g38
assS'810'
p43
(dp44
sS'3494'
p45
(dp46
sS'817'
p47
(dp48
Vwaiter
p49
(lp50
S'service'
p51
assS'2853'
p52
(dp53
sS'1796'
p54
(dp55
Vguys
p56
(lp57
S'service'
p58
assS'1794'
p59
(dp60
Voverpriced
p61
(lp62
S'price'
p63
assS'1491'
p64
(dp65
Vsauce
p66
(lp67
S'food'
p68
aS'ambiance'
p69
asVcrust
p70
(lp71
g69
asVdelicious
p72
(lp73
g68
ag69
assS'1496'
p74
(dp75
sS'1395'
p76
(dp77
Vmost
p78
(lp79
S'food'
p80
assS'1701'
p81
(dp82
sS'1060'
p83
(dp84
Vgreat
p85
(lp86
S'food'
p87
aS'service'
p88
asVSpreads
p89
(lp90
g87
assS'2314'
p91
(dp92
Vgreat
p93
(lp94
S'service'
p95
asVservice
p96
(lp97
g95
assS'2312'
p98
(dp99
Vgoing
p100
(lp101
S'service'
p102
assS'1669'
p103
(dp104
Vplace
p105
(lp106
S'atmosphere'
p107
assS'299'
p108
(dp109
Vbenedict
p110
(lp111
S'food'
p112
aS'service'
p113
asVservice
p114
(lp115
g113
assS'295'
p116
(dp117
Vup
p118
(lp119
S'service'
p120
assS'292'
p121
(dp122
sS'1086'
p123
(dp124
sS'587'
p125
(dp126
sS'195'
p127
(dp128
Vweather
p129
(lp130
S'servicing'
p131
assS'196'
p132
(dp133
Vstaff
p134
(lp135
S'military_service'
p136
assS'190'
p137
(dp138
sS'192'
p139
(dp140
sS'3679'
p141
(dp142
Vplace
p143
(lp144
S'atmosphere'
p145
assS'3672'
p146
(dp147
Vstaff
p148
(lp149
S'military_service'
p150
assS'3149'
p151
(dp152
Vcame
p153
(lp154
S'food'
p155
assS'3677'
p156
(dp157
Vplate
p158
(lp159
S'service'
p160
assS'2989'
p161
(dp162
sS'2547'
p163
(dp164
VSpecials
p165
(lp166
S'food'
p167
assS'3663'
p168
(dp169
Vdessert
p170
(lp171
S'food'
p172
assS'2987'
p173
(dp174
Vfood
p175
(lp176
S'food'
p177
assS'3022'
p178
(dp179
Vlove
p180
(lp181
S'servicing'
p182
assS'3388'
p183
(dp184
sS'2268'
p185
(dp186
sS'2382'
p187
(dp188
Vtry
p189
(lp190
S'service'
p191
asVfetish
p192
(lp193
g191
assS'2387'
p194
(dp195
VSeveral
p196
(lp197
S'food'
p198
asVhad
p199
(lp200
g198
aS'serve'
p201
assS'2389'
p202
(dp203
Vdish
p204
(lp205
S'service'
p206
asVfood
p207
(lp208
S'food'
p209
ag206
assS'2263'
p210
(dp211
Vservice
p212
(lp213
S'service'
p214
assS'2261'
p215
(dp216
Vlist
p217
(lp218
S'price'
p219
assS'3581'
p220
(dp221
Vcheeseburgers
p222
(lp223
S'food'
p224
assS'3583'
p225
(dp226
Vfell
p227
(lp228
S'overhaul'
p229
assS'1231'
p230
(dp231
Vbagels
p232
(lp233
S'food'
p234
assS'1233'
p235
(dp236
sS'441'
p237
(dp238
Vservice
p239
(lp240
S'service'
p241
assS'2285'
p242
(dp243
Vfood
p244
(lp245
S'food'
p246
assS'2514'
p247
(dp248
sS'2516'
p249
(dp250
VI
p251
(lp252
S'food'
p253
asVgo
p254
(lp255
g253
aS'service'
p256
asVplace
p257
(lp258
g253
aS'atmosphere'
p259
ag256
assS'902'
p260
(dp261
sS'900'
p262
(dp263
VInterior
p264
(lp265
S'ambiance'
p266
asVwas
p267
(lp268
g266
assS'906'
p269
(dp270
sS'1540'
p271
(dp272
sS'904'
p273
(dp274
Vgotten
p275
(lp276
S'service'
p277
assS'1536'
p278
(dp279
sS'1534'
p280
(dp281
sS'1245'
p282
(dp283
sS'644'
p284
(dp285
sS'3094'
p286
(dp287
sS'3095'
p288
(dp289
g251
(lp290
S'food'
p291
asVfan
p292
(lp293
g291
aS'service'
p294
assS'649'
p295
(dp296
sS'1539'
p297
(dp298
sS'2614'
p299
(dp300
Vplace
p301
(lp302
S'atmosphere'
p303
assS'2611'
p304
(dp305
sS'2610'
p306
(dp307
Vtoppings
p308
(lp309
S'service'
p310
assS'1946'
p311
(dp312
VVillage
p313
(lp314
S'ambiance'
p315
assS'3266'
p316
(dp317
Vsimplicity
p318
(lp319
S'price'
p320
asVplace
p321
(lp322
g320
aS'atmosphere'
p323
asVelegance
p324
(lp325
g320
assS'331'
p326
(dp327
Vfriend
p328
(lp329
S'service'
p330
assS'330'
p331
(dp332
sS'333'
p333
(dp334
VBoy
p335
(lp336
S'service'
p337
asVwas
p338
(lp339
S'ambiance'
p340
ag337
assS'1908'
p341
(dp342
Vsmall
p343
(lp344
S'atmosphere'
p345
aS'service'
p346
asVreservations
p347
(lp348
g346
assS'3296'
p349
(dp350
Vit
p351
(lp352
S'food'
p353
asVcrowded
p354
(lp355
g353
assS'1905'
p356
(dp357
sS'1902'
p358
(dp359
VSteak
p360
(lp361
S'food'
p362
assS'3450'
p363
(dp364
sS'3518'
p365
(dp366
VEw
p367
(lp368
S'service'
p369
assS'3457'
p370
(dp371
Vwalked
p372
(lp373
S'food'
p374
assS'3458'
p375
(dp376
sS'3510'
p377
(dp378
Vwas
p379
(lp380
S'ambiance'
p381
asVexperience
p382
(lp383
S'food'
p384
ag381
asVrestaurant
p385
(lp386
g384
ag381
aS'service'
p387
assS'2686'
p388
(dp389
Vplace
p390
(lp391
S'atmosphere'
p392
aS'service'
p393
asVservice
p394
(lp395
g393
assS'2246'
p396
(dp397
Vgo
p398
(lp399
S'service'
p400
assS'1993'
p401
(dp402
sS'1992'
p403
(dp404
sS'1627'
p405
(dp406
Vservice
p407
(lp408
S'service'
p409
assS'1997'
p410
(dp411
g251
(lp412
S'food'
p413
asVfelt
p414
(lp415
g413
aS'service'
p416
assS'3200'
p417
(dp418
sS'1462'
p419
(dp420
Vdishes
p421
(lp422
S'service'
p423
assS'559'
p424
(dp425
sS'3638'
p426
(dp427
Vcheese
p428
(lp429
S'food'
p430
asVPizza
p431
(lp432
g430
asVfigured
p433
(lp434
g430
asVlunch
p435
(lp436
g430
asVpizza
p437
(lp438
g430
assS'747'
p439
(dp440
sS'555'
p441
(dp442
Vplace
p443
(lp444
S'atmosphere'
p445
assS'3634'
p446
(dp447
sS'3632'
p448
(dp449
sS'3633'
p450
(dp451
Vtreat
p452
(lp453
S'food'
p454
aS'service'
p455
asVservice
p456
(lp457
g455
assS'3017'
p458
(dp459
g251
(lp460
S'food'
p461
aS'service'
p462
asVgirl
p463
(lp464
g462
asVHUNGRY
p465
(lp466
g461
ag462
assS'3063'
p467
(dp468
sS'2948'
p469
(dp470
sS'2945'
p471
(dp472
Vroom
p473
(lp474
S'military_service'
p475
assS'236'
p476
(dp477
Vmoney
p478
(lp479
S'price'
p480
assS'1053'
p481
(dp482
Vstuff
p483
(lp484
S'food'
p485
assS'2341'
p486
(dp487
sS'2226'
p488
(dp489
Vprice
p490
(lp491
S'monetary_value'
p492
asVreasonable
p493
(lp494
S'food'
p495
ag492
assS'2224'
p496
(dp497
sS'3341'
p498
(dp499
Vwas
p500
(lp501
S'food'
p502
aS'ambiance'
p503
asVit
p504
(lp505
g502
assS'1195'
p506
(dp507
Vprices
p508
(lp509
S'monetary_value'
p510
asVsushi
p511
(lp512
S'food'
p513
ag510
assS'3344'
p514
(dp515
Vofficial
p516
(lp517
S'service'
p518
asVtimes
p519
(lp520
g518
assS'1693'
p521
(dp522
sS'1756'
p523
(dp524
sS'1699'
p525
(dp526
Vdumplings
p527
(lp528
S'food'
p529
assS'1177'
p530
(dp531
sS'147'
p532
(dp533
Vstyle
p534
(lp535
S'price'
p536
asVribs
p537
(lp538
S'food'
p539
ag536
assS'140'
p540
(dp541
sS'1170'
p542
(dp543
Vgo
p544
(lp545
S'service'
p546
assS'2701'
p547
(dp548
Vfood
p549
(lp550
S'food'
p551
aS'service'
p552
asVgreat
p553
(lp554
g552
asVfantastic
p555
(lp556
g551
ag552
asVService
p557
(lp558
g552
assS'611'
p559
(dp560
sS'617'
p561
(dp562
sS'1178'
p563
(dp564
sS'3708'
p565
(dp566
sS'1885'
p567
(dp568
sS'2856'
p569
(dp570
Vspace
p571
(lp572
S'ambiance'
p573
assS'1882'
p574
(dp575
sS'3704'
p576
(dp577
sS'1285'
p578
(dp579
g251
(lp580
S'food'
p581
asVlive
p582
(lp583
g581
assS'2088'
p584
(dp585
sS'2122'
p586
(dp587
Vhuge
p588
(lp589
S'food'
p590
aS'atmosphere'
p591
asVsushi
p592
(lp593
g590
ag591
asVsizes
p594
(lp595
g591
assS'949'
p596
(dp597
Vtea
p598
(lp599
S'food'
p600
asVwine
p601
(lp602
g600
assS'3117'
p603
(dp604
Vfood
p605
(lp606
S'food'
p607
assS'2083'
p608
(dp609
Vso-so
p610
(lp611
S'food'
p612
asVsum
p613
(lp614
g612
assS'944'
p615
(dp616
g251
(lp617
S'food'
p618
asVwent
p619
(lp620
g618
aS'service'
p621
assS'945'
p622
(dp623
Vcafe
p624
(lp625
S'service'
p626
asVservice
p627
(lp628
g626
assS'1289'
p629
(dp630
sS'943'
p631
(dp632
sS'941'
p633
(dp634
Vservice
p635
(lp636
S'service'
p637
asVexcellent
p638
(lp639
S'food'
p640
ag637
assS'2539'
p641
(dp642
Vspecial
p643
(lp644
S'food'
p645
asVselections
p646
(lp647
g645
aS'service'
p648
assS'517'
p649
(dp650
Vpage
p651
(lp652
S'service'
p653
assS'1572'
p654
(dp655
Vfun
p656
(lp657
S'service'
p658
assS'687'
p659
(dp660
sS'2535'
p661
(dp662
sS'2712'
p663
(dp664
Vtimes
p665
(lp666
S'service'
p667
assS'2710'
p668
(dp669
sS'1192'
p670
(dp671
Vsushi
p672
(lp673
S'food'
p674
assS'1300'
p675
(dp676
sS'3103'
p677
(dp678
Vmanhattan
p679
(lp680
S'food'
p681
assS'2714'
p682
(dp683
Vmenu
p684
(lp685
S'food'
p686
assS'622'
p687
(dp688
Vadvice
p689
(lp690
S'atmosphere'
p691
aS'price'
p692
asVplace
p693
(lp694
g691
assS'2652'
p695
(dp696
Vlights
p697
(lp698
S'atmosphere'
p699
asVputting
p700
(lp701
g699
aS'serve'
p702
aS'service'
p703
asVrestaurant
p704
(lp705
g699
ag703
assS'2655'
p706
(dp707
sS'137'
p708
(dp709
Vplace
p710
(lp711
S'atmosphere'
p712
asVcrowded
p713
(lp714
S'food'
p715
ag712
assS'490'
p716
(dp717
sS'3419'
p718
(dp719
Vcuisine
p720
(lp721
S'overhaul'
p722
asVis
p723
(lp724
S'food'
p725
ag722
assS'1839'
p726
(dp727
VFood
p728
(lp729
S'food'
p730
asVgreat
p731
(lp732
g730
aS'service'
p733
assS'29'
p734
(dp735
Vroom
p736
(lp737
S'military_service'
p738
assS'407'
p739
(dp740
Vsushi
p741
(lp742
S'food'
p743
asVseemed
p744
(lp745
g743
assS'2407'
p746
(dp747
Vreason
p748
(lp749
S'atmosphere'
p750
assS'2156'
p751
(dp752
sS'938'
p753
(dp754
sS'403'
p755
(dp756
Vaverage
p757
(lp758
S'food'
p759
asVit
p760
(lp761
g759
asVnight
p762
(lp763
g759
assS'2403'
p764
(dp765
sS'2400'
p766
(dp767
Vtofu
p768
(lp769
S'food'
p770
aS'service'
p771
asVsalad
p772
(lp773
g770
asVbasic
p774
(lp775
g770
ag771
assS'2153'
p776
(dp777
sS'930'
p778
(dp779
Vvodka
p780
(lp781
S'food'
p782
asVcocktail
p783
(lp784
g782
assS'937'
p785
(dp786
VPRICES
p787
(lp788
S'monetary_value'
p789
assS'936'
p790
(dp791
Vcame
p792
(lp793
S'food'
p794
assS'935'
p795
(dp796
sS'2409'
p797
(dp798
Vdelivery
p799
(lp800
S'service'
p801
asVheel
p802
(lp803
g801
assS'414'
p804
(dp805
Vfood
p806
(lp807
S'food'
p808
assS'1952'
p809
(dp810
Vfood
p811
(lp812
S'food'
p813
asVservice
p814
(lp815
g813
aS'service'
p816
asVexcellent
p817
(lp818
g813
ag816
assS'3567'
p819
(dp820
Vfritter
p821
(lp822
S'food'
p823
assS'3242'
p824
(dp825
sS'3247'
p826
(dp827
Vspinach
p828
(lp829
S'food'
p830
assS'3245'
p831
(dp832
Vbuns
p833
(lp834
S'food'
p835
asVgood
p836
(lp837
g835
aS'price'
p838
assS'378'
p839
(dp840
Vfish
p841
(lp842
S'food'
p843
assS'827'
p844
(dp845
Vsurprise
p846
(lp847
S'food'
p848
aS'service'
p849
asVIt
p850
(lp851
g848
assS'826'
p852
(dp853
sS'1063'
p854
(dp855
Vforgivable
p856
(lp857
S'food'
p858
assS'822'
p859
(dp860
Vreviews
p861
(lp862
S'service'
p863
assS'704'
p864
(dp865
Vprices
p866
(lp867
S'monetary_value'
p868
asVfabulous
p869
(lp870
S'food'
p871
ag868
asVcheap
p872
(lp873
g871
ag868
asVit
p874
(lp875
g871
ag868
assS'705'
p876
(dp877
Vfood
p878
(lp879
S'food'
p880
aS'atmosphere'
p881
aS'service'
p882
asVGREAT
p883
(lp884
g880
ag882
asVportions
p885
(lp886
g880
ag881
ag882
asVNOT
p887
(lp888
g880
ag881
ag882
asVsmall
p889
(lp890
g880
ag881
ag882
asVmean
p891
(lp892
g880
ag881
ag882
asVcheap
p893
(lp894
g880
ag882
asVIT
p895
(lp896
g880
asVit
p897
(lp898
g880
ag882
assS'706'
p899
(dp900
sS'1483'
p901
(dp902
Vfriendlier
p903
(lp904
S'food'
p905
assS'1480'
p906
(dp907
sS'397'
p908
(dp909
Vroll
p910
(lp911
S'food'
p912
assS'1485'
p913
(dp914
VPizza
p915
(lp916
S'food'
p917
assS'394'
p918
(dp919
Vassortment
p920
(lp921
S'service'
p922
asVfish
p923
(lp924
S'food'
p925
ag922
assS'3306'
p926
(dp927
sS'3303'
p928
(dp929
VBisque
p930
(lp931
S'food'
p932
assS'2309'
p933
(dp934
sS'928'
p935
(dp936
g251
(lp937
S'food'
p938
asVcare
p939
(lp940
g938
aS'overhaul'
p941
assS'1710'
p942
(dp943
Vwaiter
p944
(lp945
S'service'
p946
assS'1717'
p947
(dp948
Vtake
p949
(lp950
S'serve'
p951
assS'1716'
p952
(dp953
VStrike
p954
(lp955
S'atmosphere'
p956
aS'service'
p957
asVplace
p958
(lp959
g956
assS'1715'
p960
(dp961
sS'1718'
p962
(dp963
sS'2305'
p964
(dp965
sS'2798'
p966
(dp967
sS'2169'
p968
(dp969
sS'1653'
p970
(dp971
sS'2289'
p972
(dp973
Vgood
p974
(lp975
S'price'
p976
aS'service'
p977
asVservice
p978
(lp979
g977
assS'1139'
p980
(dp981
sS'3666'
p982
(dp983
sS'580'
p984
(dp985
Vconcluded
p986
(lp987
S'service'
p988
assS'3662'
p989
(dp990
Vdish
p991
(lp992
S'service'
p993
asVattentive
p994
(lp995
S'food'
p996
ag993
asVservice
p997
(lp998
g993
assS'2281'
p999
(dp1000
sS'3668'
p1001
(dp1002
Vpresentation
p1003
(lp1004
S'service'
p1005
assS'588'
p1006
(dp1007
Vfood
p1008
(lp1009
S'food'
p1010
asVcool
p1011
(lp1012
g1010
aS'service'
p1013
asVexperience
p1014
(lp1015
g1010
asVexcellent
p1016
(lp1017
g1010
assS'1633'
p1018
(dp1019
sS'2838'
p1020
(dp1021
sS'3159'
p1022
(dp1023
Vcoffee
p1024
(lp1025
S'food'
p1026
asVgood
p1027
(lp1028
g1026
aS'price'
p1029
assS'2834'
p1030
(dp1031
sS'3107'
p1032
(dp1033
sS'2275'
p1034
(dp1035
Vhole-in-the-wall
p1036
(lp1037
S'atmosphere'
p1038
aS'ambiance'
p1039
asVplace
p1040
(lp1041
g1038
assS'3019'
p1042
(dp1043
Vcouple
p1044
(lp1045
S'serve'
p1046
asVhusband
p1047
(lp1048
g1046
aS'service'
p1049
assS'1430'
p1050
(dp1051
Vplace
p1052
(lp1053
S'atmosphere'
p1054
assS'418'
p1055
(dp1056
Vminutes
p1057
(lp1058
S'price'
p1059
assS'2574'
p1060
(dp1061
Vorganic
p1062
(lp1063
S'food'
p1064
asVIngredients
p1065
(lp1066
g1064
assS'3016'
p1067
(dp1068
Vmake
p1069
(lp1070
S'food'
p1071
aS'price'
p1072
asVqualities
p1073
(lp1074
g1072
assS'2573'
p1075
(dp1076
sS'3014'
p1077
(dp1078
Ventered
p1079
(lp1080
S'serve'
p1081
aS'service'
p1082
asVcall
p1083
(lp1084
g1082
asVfirst
p1085
(lp1086
g1082
assS'2571'
p1087
(dp1088
VAmbience
p1089
(lp1090
S'atmosphere'
p1091
asVcute
p1092
(lp1093
S'food'
p1094
ag1091
assS'2378'
p1095
(dp1096
Vshort-order
p1097
(lp1098
S'food'
p1099
aS'service'
p1100
asVservice
p1101
(lp1102
g1100
assS'2379'
p1103
(dp1104
Vlike
p1105
(lp1106
S'food'
p1107
assS'512'
p1108
(dp1109
Vrude
p1110
(lp1111
S'food'
p1112
assS'1003'
p1113
(dp1114
sS'1001'
p1115
(dp1116
Vplace
p1117
(lp1118
S'atmosphere'
p1119
assS'1349'
p1120
(dp1121
Vevening
p1122
(lp1123
S'service'
p1124
asVfriends
p1125
(lp1126
g1124
assS'3590'
p1127
(dp1128
sS'2590'
p1129
(dp1130
sS'3595'
p1131
(dp1132
sS'629'
p1133
(dp1134
sS'2051'
p1135
(dp1136
Vname
p1137
(lp1138
S'service'
p1139
assS'974'
p1140
(dp1141
Vplace
p1142
(lp1143
S'atmosphere'
p1144
aS'service'
p1145
asVcraving
p1146
(lp1147
g1144
ag1145
asVtimes
p1148
(lp1149
g1145
assS'971'
p1150
(dp1151
Vchicken
p1152
(lp1153
S'food'
p1154
assS'970'
p1155
(dp1156
sS'3696'
p1157
(dp1158
sS'182'
p1159
(dp1160
sS'180'
p1161
(dp1162
Vside
p1163
(lp1164
S'food'
p1165
assS'3089'
p1166
(dp1167
Vfan
p1168
(lp1169
S'service'
p1170
assS'1507'
p1171
(dp1172
Vstay
p1173
(lp1174
S'service'
p1175
assS'650'
p1176
(dp1177
Vis
p1178
(lp1179
S'food'
p1180
assS'185'
p1181
(dp1182
Vfood
p1183
(lp1184
S'food'
p1185
aS'service'
p1186
asVdo
p1187
(lp1188
g1186
asVspicy
p1189
(lp1190
g1185
ag1186
assS'1508'
p1191
(dp1192
Vservice
p1193
(lp1194
S'service'
p1195
assS'2114'
p1196
(dp1197
sS'2116'
p1198
(dp1199
Vrolls
p1200
(lp1201
S'food'
p1202
assS'659'
p1203
(dp1204
sS'2623'
p1205
(dp1206
Vplace
p1207
(lp1208
S'atmosphere'
p1209
assS'1123'
p1210
(dp1211
Vnight
p1212
(lp1213
S'food'
p1214
aS'service'
p1215
asVrolls
p1216
(lp1217
g1214
ag1215
asVkitchen
p1218
(lp1219
g1215
assS'2624'
p1220
(dp1221
g251
(lp1222
S'food'
p1223
asVthought
p1224
(lp1225
g1223
asVplace
p1226
(lp1227
g1223
aS'atmosphere'
p1228
asVoverrated
p1229
(lp1230
g1223
ag1228
assS'3526'
p1231
(dp1232
Vgo
p1233
(lp1234
S'service'
p1235
assS'3520'
p1236
(dp1237
sS'3087'
p1238
(dp1239
Vdrinks
p1240
(lp1241
S'food'
p1242
assS'1917'
p1243
(dp1244
Vfood
p1245
(lp1246
S'food'
p1247
asVgood
p1248
(lp1249
g1247
aS'price'
p1250
assS'862'
p1251
(dp1252
Vsimple
p1253
(lp1254
S'service'
p1255
asVdecor
p1256
(lp1257
g1255
assS'867'
p1258
(dp1259
sS'2129'
p1260
(dp1261
sS'2699'
p1262
(dp1263
sS'2696'
p1264
(dp1265
Vmenu
p1266
(lp1267
S'food'
p1268
asVtasting
p1269
(lp1270
g1268
aS'service'
p1271
assS'2029'
p1272
(dp1273
Vproblem
p1274
(lp1275
S'atmosphere'
p1276
assS'885'
p1277
(dp1278
Vfood
p1279
(lp1280
S'food'
p1281
aS'atmosphere'
p1282
asVplace
p1283
(lp1284
g1282
asVhorrible
p1285
(lp1286
g1281
ag1282
assS'888'
p1287
(dp1288
Vasked
p1289
(lp1290
S'food'
p1291
asVone
p1292
(lp1293
g1291
assS'278'
p1294
(dp1295
sS'279'
p1296
(dp1297
VColonies
p1298
(lp1299
S'food'
p1300
aS'atmosphere'
p1301
aS'ambiance'
p1302
asVit
p1303
(lp1304
g1300
ag1301
asVway
p1305
(lp1306
g1301
assS'3233'
p1307
(dp1308
sS'1966'
p1309
(dp1310
Vplace
p1311
(lp1312
S'atmosphere'
p1313
assS'188'
p1314
(dp1315
Vpart
p1316
(lp1317
S'service'
p1318
asVservice
p1319
(lp1320
g1318
assS'1960'
p1321
(dp1322
sS'1613'
p1323
(dp1324
sS'1610'
p1325
(dp1326
Vpizza
p1327
(lp1328
S'food'
p1329
assS'328'
p1330
(dp1331
Vended
p1332
(lp1333
S'food'
p1334
aS'service'
p1335
asVgreat
p1336
(lp1337
g1334
aS'atmosphere'
p1338
ag1335
asVplace
p1339
(lp1340
g1334
ag1338
ag1335
asg251
(lp1341
g1334
ag1338
ag1335
asVit
p1342
(lp1343
g1334
ag1338
ag1335
asVglad
p1344
(lp1345
g1334
ag1338
ag1335
assS'562'
p1346
(dp1347
Vtable
p1348
(lp1349
S'food'
p1350
assS'774'
p1351
(dp1352
sS'777'
p1353
(dp1354
Vcriticize
p1355
(lp1356
S'food'
p1357
assS'2877'
p1358
(dp1359
Vkids
p1360
(lp1361
S'service'
p1362
asVlove
p1363
(lp1364
S'servicing'
p1365
ag1362
assS'2876'
p1366
(dp1367
Vexperience
p1368
(lp1369
S'food'
p1370
asVtimes
p1371
(lp1372
g1370
aS'service'
p1373
assS'206'
p1374
(dp1375
Vfood
p1376
(lp1377
S'food'
p1378
asVis
p1379
(lp1380
g1378
asVits
p1381
(lp1382
g1378
asVdelicious
p1383
(lp1384
g1378
assS'3625'
p1385
(dp1386
sS'3355'
p1387
(dp1388
Vcake
p1389
(lp1390
S'food'
p1391
asg251
(lp1392
g1391
asVthought
p1393
(lp1394
g1391
assS'2979'
p1395
(dp1396
Vfood
p1397
(lp1398
S'food'
p1399
assS'72'
p1400
(dp1401
sS'71'
p1402
(dp1403
Varea
p1404
(lp1405
S'food'
p1406
aS'service'
p1407
asVMADE
p1408
(lp1409
g1407
asVplace
p1410
(lp1411
g1406
aS'atmosphere'
p1412
ag1407
asVservice
p1413
(lp1414
g1406
ag1407
asVPizza
p1415
(lp1416
g1406
ag1407
assS'2546'
p1417
(dp1418
sS'1047'
p1419
(dp1420
Vfind
p1421
(lp1422
S'service'
p1423
assS'2235'
p1424
(dp1425
Vone
p1426
(lp1427
S'food'
p1428
assS'1683'
p1429
(dp1430
Vfood
p1431
(lp1432
S'food'
p1433
aS'service'
p1434
asVservice
p1435
(lp1436
g1434
assS'1687'
p1437
(dp1438
sS'1766'
p1439
(dp1440
VFood
p1441
(lp1442
S'food'
p1443
assS'1146'
p1444
(dp1445
sS'3289'
p1446
(dp1447
sS'1148'
p1448
(dp1449
sS'3479'
p1450
(dp1451
sS'3171'
p1452
(dp1453
sS'2096'
p1454
(dp1455
Vplaces
p1456
(lp1457
S'atmosphere'
p1458
assS'2093'
p1459
(dp1460
Vgo
p1461
(lp1462
S'service'
p1463
assS'3652'
p1464
(dp1465
Vcosts
p1466
(lp1467
S'monetary_value'
p1468
assS'2526'
p1469
(dp1470
Vprices
p1471
(lp1472
S'serve'
p1473
aS'monetary_value'
p1474
aS'service'
p1475
asVtake
p1476
(lp1477
g1473
ag1475
asVDeliveries
p1478
(lp1479
g1475
assS'1302'
p1480
(dp1481
Vprices
p1482
(lp1483
S'monetary_value'
p1484
asVget
p1485
(lp1486
S'serve'
p1487
ag1484
assS'2488'
p1488
(dp1489
sS'695'
p1490
(dp1491
VCa
p1492
(lp1493
S'ambiance'
p1494
asVwait
p1495
(lp1496
g1494
aS'service'
p1497
assS'3120'
p1498
(dp1499
Vfood
p1500
(lp1501
S'food'
p1502
assS'543'
p1503
(dp1504
sS'527'
p1505
(dp1506
Vcouple
p1507
(lp1508
S'food'
p1509
aS'serve'
p1510
asVdrinks
p1511
(lp1512
g1509
assS'547'
p1513
(dp1514
sS'544'
p1515
(dp1516
Vspot
p1517
(lp1518
S'food'
p1519
aS'service'
p1520
asVIt
p1521
(lp1522
g1519
assS'1467'
p1523
(dp1524
Vtimes
p1525
(lp1526
S'service'
p1527
assS'1466'
p1528
(dp1529
Vconversation
p1530
(lp1531
S'food'
p1532
aS'price'
p1533
aS'service'
p1534
asVattorney
p1535
(lp1536
g1534
asVside
p1537
(lp1538
g1532
ag1534
assS'2241'
p1539
(dp1540
sS'2243'
p1541
(dp1542
Vprices
p1543
(lp1544
S'food'
p1545
aS'monetary_value'
p1546
aS'service'
p1547
asVnear
p1548
(lp1549
g1545
ag1547
asVCollege
p1550
(lp1551
g1547
asVlocation
p1552
(lp1553
g1547
asVreasonable
p1554
(lp1555
g1545
ag1546
ag1547
asVgo
p1556
(lp1557
g1547
assS'997'
p1558
(dp1559
sS'2467'
p1560
(dp1561
sS'2461'
p1562
(dp1563
VCUISINE
p1564
(lp1565
S'overhaul'
p1566
assS'992'
p1567
(dp1568
Vkind
p1569
(lp1570
S'food'
p1571
assS'2704'
p1572
(dp1573
sS'2468'
p1574
(dp1575
sS'126'
p1576
(dp1577
VSeating
p1578
(lp1579
S'service'
p1580
assS'1020'
p1581
(dp1582
Vdepends
p1583
(lp1584
S'food'
p1585
asVreally
p1586
(lp1587
g1585
assS'3379'
p1588
(dp1589
VSquare
p1590
(lp1591
S'atmosphere'
p1592
aS'ambiance'
p1593
asVplace
p1594
(lp1595
g1592
assS'2068'
p1596
(dp1597
sS'2146'
p1598
(dp1599
Vfood
p1600
(lp1601
S'food'
p1602
asVatmosphere
p1603
(lp1604
g1602
aS'atmosphere'
p1605
asVmakes
p1606
(lp1607
g1602
ag1605
aS'military_service'
p1608
asVstaff
p1609
(lp1610
g1602
ag1605
ag1608
assS'2145'
p1611
(dp1612
sS'411'
p1613
(dp1614
Vbrought
p1615
(lp1616
S'service'
p1617
asVwas
p1618
(lp1619
S'ambiance'
p1620
ag1617
assS'413'
p1621
(dp1622
Vcheck
p1623
(lp1624
S'serve'
p1625
assS'2060'
p1626
(dp1627
sS'922'
p1628
(dp1629
Vservice
p1630
(lp1631
S'service'
p1632
assS'2796'
p1633
(dp1634
Vfood
p1635
(lp1636
S'food'
p1637
assS'419'
p1638
(dp1639
sS'2066'
p1640
(dp1641
sS'313'
p1642
(dp1643
sS'317'
p1644
(dp1645
sS'314'
p1646
(dp1647
Vquality
p1648
(lp1649
S'price'
p1650
assS'1920'
p1651
(dp1652
Varrived
p1653
(lp1654
S'food'
p1655
assS'1921'
p1656
(dp1657
Vfood
p1658
(lp1659
S'food'
p1660
asVsurprise
p1661
(lp1662
g1660
aS'service'
p1663
assS'448'
p1664
(dp1665
Vpies
p1666
(lp1667
S'food'
p1668
asVget
p1669
(lp1670
g1668
aS'serve'
p1671
assS'3272'
p1672
(dp1673
Vcollection
p1674
(lp1675
S'service'
p1676
assS'832'
p1677
(dp1678
sS'3473'
p1679
(dp1680
sS'3570'
p1681
(dp1682
Vpeople
p1683
(lp1684
S'military_service'
p1685
assS'2359'
p1686
(dp1687
Vbill
p1688
(lp1689
S'food'
p1690
aS'service'
p1691
asVsteep
p1692
(lp1693
g1690
aS'ambiance'
p1694
ag1691
asVexperience
p1695
(lp1696
g1690
assS'722'
p1697
(dp1698
Vambience
p1699
(lp1700
S'atmosphere'
p1701
asVdark
p1702
(lp1703
S'food'
p1704
ag1701
asVit
p1705
(lp1706
g1704
ag1701
assS'363'
p1707
(dp1708
Vfine
p1709
(lp1710
S'price'
p1711
asVlist
p1712
(lp1713
g1711
assS'2937'
p1714
(dp1715
Vsqueeze
p1716
(lp1717
S'service'
p1718
asVtreat
p1719
(lp1720
S'food'
p1721
ag1718
assS'2933'
p1722
(dp1723
sS'2931'
p1724
(dp1725
Vfood
p1726
(lp1727
S'food'
p1728
asg251
(lp1729
g1728
aS'price'
p1730
asVgood
p1731
(lp1732
g1728
ag1730
asVleft
p1733
(lp1734
g1728
ag1730
aS'ambiance'
p1735
assS'382'
p1736
(dp1737
Vcalamari
p1738
(lp1739
S'food'
p1740
asVnoodles
p1741
(lp1742
g1740
asVyummy
p1743
(lp1744
g1740
asVcomes
p1745
(lp1746
g1740
assS'3313'
p1747
(dp1748
Vwent
p1749
(lp1750
S'service'
p1751
assS'444'
p1752
(dp1753
VPatsy
p1754
(lp1755
S'service'
p1756
assS'784'
p1757
(dp1758
Vplace
p1759
(lp1760
S'atmosphere'
p1761
assS'785'
p1762
(dp1763
Vfeel
p1764
(lp1765
S'atmosphere'
p1766
asVzen
p1767
(lp1768
g1766
aS'service'
p1769
assS'2065'
p1770
(dp1771
Vgo
p1772
(lp1773
S'service'
p1774
assS'1643'
p1775
(dp1776
sS'1642'
p1777
(dp1778
Vhad
p1779
(lp1780
S'serve'
p1781
assS'1649'
p1782
(dp1783
Vsushi
p1784
(lp1785
S'food'
p1786
assS'2692'
p1787
(dp1788
Vattentive
p1789
(lp1790
S'food'
p1791
aS'military_service'
p1792
asVstaff
p1793
(lp1794
g1792
assS'3617'
p1795
(dp1796
Vneighborhood
p1797
(lp1798
S'ambiance'
p1799
assS'3619'
p1800
(dp1801
sS'571'
p1802
(dp1803
Vtime
p1804
(lp1805
S'service'
p1806
assS'2954'
p1807
(dp1808
Vneighborhood
p1809
(lp1810
S'ambiance'
p1811
asVnice
p1812
(lp1813
g1811
assS'60'
p1814
(dp1815
sS'2195'
p1816
(dp1817
Vservice
p1818
(lp1819
S'service'
p1820
asVexcellent
p1821
(lp1822
S'food'
p1823
ag1820
assS'3168'
p1824
(dp1825
Vbagel
p1826
(lp1827
S'food'
p1828
aS'service'
p1829
asVcorner
p1830
(lp1831
g1829
asVway
p1832
(lp1833
g1828
aS'atmosphere'
p1834
ag1829
assS'2197'
p1835
(dp1836
Vneed
p1837
(lp1838
S'food'
p1839
aS'price'
p1840
aS'atmosphere'
p1841
asVgood
p1842
(lp1843
g1839
ag1840
asVsushi
p1844
(lp1845
g1839
asVplace
p1846
(lp1847
g1839
ag1840
ag1841
assS'2198'
p1848
(dp1849
Vgood
p1850
(lp1851
S'price'
p1852
assS'2199'
p1853
(dp1854
sS'3162'
p1855
(dp1856
Vtown
p1857
(lp1858
S'ambiance'
p1859
assS'2807'
p1860
(dp1861
Vplace
p1862
(lp1863
S'atmosphere'
p1864
assS'2569'
p1865
(dp1866
Vreviews
p1867
(lp1868
S'service'
p1869
assS'2406'
p1870
(dp1871
Vfritters
p1872
(lp1873
S'food'
p1874
assS'1423'
p1875
(dp1876
Vhotpot
p1877
(lp1878
S'food'
p1879
aS'overhaul'
p1880
aS'service'
p1881
asVcooking
p1882
(lp1883
g1879
ag1880
asVspecial
p1884
(lp1885
g1879
asVrestaurant
p1886
(lp1887
g1879
ag1880
ag1881
assS'2207'
p1888
(dp1889
Vseated
p1890
(lp1891
S'food'
p1892
aS'ambiance'
p1893
asVus
p1894
(lp1895
g1893
assS'3364'
p1896
(dp1897
Vspot
p1898
(lp1899
S'service'
p1900
assS'1428'
p1901
(dp1902
g251
(lp1903
S'food'
p1904
aS'price'
p1905
asVwent
p1906
(lp1907
g1904
ag1905
aS'service'
p1908
asVgood
p1909
(lp1910
g1904
ag1905
asVit
p1911
(lp1912
g1904
assS'3366'
p1913
(dp1914
Vfood
p1915
(lp1916
S'food'
p1917
asVpastas
p1918
(lp1919
g1917
assS'1373'
p1920
(dp1921
sS'1584'
p1922
(dp1923
VSHOW
p1924
(lp1925
S'service'
p1926
assS'1038'
p1927
(dp1928
Vservice
p1929
(lp1930
S'service'
p1931
assS'732'
p1932
(dp1933
Vburger
p1934
(lp1935
S'food'
p1936
asVgreat
p1937
(lp1938
g1936
aS'service'
p1939
assS'508'
p1940
(dp1941
sS'739'
p1942
(dp1943
Vwaiter
p1944
(lp1945
S'service'
p1946
asVfound
p1947
(lp1948
S'price'
p1949
ag1946
assS'1030'
p1950
(dp1951
Vjob
p1952
(lp1953
S'service'
p1954
asVwaitresses
p1955
(lp1956
g1954
asVfriendly
p1957
(lp1958
S'military_service'
p1959
ag1954
assS'2151'
p1960
(dp1961
Vrate
p1962
(lp1963
S'price'
p1964
assS'2428'
p1965
(dp1966
sS'1358'
p1967
(dp1968
Vprice
p1969
(lp1970
S'monetary_value'
p1971
assS'468'
p1972
(dp1973
Vneed
p1974
(lp1975
S'atmosphere'
p1976
aS'service'
p1977
asVsnobs
p1978
(lp1979
g1977
asVkind
p1980
(lp1981
S'food'
p1982
ag1976
ag1977
assS'2580'
p1983
(dp1984
sS'1171'
p1985
(dp1986
sS'464'
p1987
(dp1988
Vveal
p1989
(lp1990
S'food'
p1991
aS'atmosphere'
p1992
aS'service'
p1993
asVdishes
p1994
(lp1995
g1991
ag1992
ag1993
asVfood
p1996
(lp1997
g1991
asVphenomenal
p1998
(lp1999
g1991
asVambiance
p2000
(lp2001
g1991
ag1992
asVminimal
p2002
(lp2003
g1991
ag1992
assS'1351'
p2004
(dp2005
Vwork
p2006
(lp2007
S'service'
p2008
assS'2423'
p2009
(dp2010
g251
(lp2011
S'food'
p2012
asVlive
p2013
(lp2014
g2012
asVopened
p2015
(lp2016
g2012
assS'402'
p2017
(dp2018
g251
(lp2019
S'food'
p2020
asVSpecial
p2021
(lp2022
g2020
assS'463'
p2023
(dp2024
sS'608'
p2025
(dp2026
Vwas
p2027
(lp2028
S'food'
p2029
aS'ambiance'
p2030
asVit
p2031
(lp2032
g2029
asVwalked
p2033
(lp2034
g2029
assS'164'
p2035
(dp2036
sS'167'
p2037
(dp2038
Vstuff
p2039
(lp2040
S'food'
p2041
assS'966'
p2042
(dp2043
Vquality
p2044
(lp2045
S'price'
p2046
assS'2898'
p2047
(dp2048
Vportion
p2049
(lp2050
S'atmosphere'
p2051
assS'783'
p2052
(dp2053
sS'969'
p2054
(dp2055
sS'3685'
p2056
(dp2057
Vmoney
p2058
(lp2059
S'price'
p2060
assS'2109'
p2061
(dp2062
Vechoes
p2063
(lp2064
S'service'
p2065
asVservice
p2066
(lp2067
g2065
assS'1102'
p2068
(dp2069
sS'1518'
p2070
(dp2071
Vplace
p2072
(lp2073
S'atmosphere'
p2074
assS'2103'
p2075
(dp2076
Vbrought
p2077
(lp2078
S'food'
p2079
aS'service'
p2080
asVfresh
p2081
(lp2082
g2079
assS'1517'
p2083
(dp2084
Vplace
p2085
(lp2086
S'atmosphere'
p2087
assS'2100'
p2088
(dp2089
sS'1109'
p2090
(dp2091
Vpotatoes
p2092
(lp2093
S'food'
p2094
asVhands
p2095
(lp2096
g2094
aS'service'
p2097
assS'2730'
p2098
(dp2099
sS'2635'
p2100
(dp2101
sS'2739'
p2102
(dp2103
sS'3533'
p2104
(dp2105
Vplace
p2106
(lp2107
S'atmosphere'
p2108
assS'1158'
p2109
(dp2110
sS'1816'
p2111
(dp2112
Vspot
p2113
(lp2114
S'service'
p2115
assS'1811'
p2116
(dp2117
Vagenda
p2118
(lp2119
S'food'
p2120
assS'2121'
p2121
(dp2122
VIndoor
p2123
(lp2124
S'food'
p2125
asVcozy
p2126
(lp2127
g2125
aS'service'
p2128
assS'2437'
p2129
(dp2130
sS'875'
p2131
(dp2132
Varrived
p2133
(lp2134
S'food'
p2135
asVempty
p2136
(lp2137
g2135
aS'service'
p2138
asVrestaurant
p2139
(lp2140
g2135
ag2138
assS'1818'
p2141
(dp2142
sS'2794'
p2143
(dp2144
sS'871'
p2145
(dp2146
Vit
p2147
(lp2148
S'food'
p2149
asVdeal
p2150
(lp2151
g2149
aS'service'
p2152
assS'2742'
p2153
(dp2154
Vmartini
p2155
(lp2156
S'food'
p2157
assS'3181'
p2158
(dp2159
sS'3183'
p2160
(dp2161
sS'2748'
p2162
(dp2163
Vthing
p2164
(lp2165
S'food'
p2166
aS'service'
p2167
asVservice
p2168
(lp2169
g2167
assS'3482'
p2170
(dp2171
sS'647'
p2172
(dp2173
Vfood
p2174
(lp2175
S'food'
p2176
assS'897'
p2177
(dp2178
sS'899'
p2179
(dp2180
VFood
p2181
(lp2182
S'food'
p2183
assS'646'
p2184
(dp2185
sS'671'
p2186
(dp2187
Vpot
p2188
(lp2189
S'service'
p2190
asVplatters
p2191
(lp2192
g2190
assS'2165'
p2193
(dp2194
Vbagel
p2195
(lp2196
S'food'
p2197
assS'3545'
p2198
(dp2199
sS'1601'
p2200
(dp2201
Ventrees
p2202
(lp2203
S'food'
p2204
assS'3224'
p2205
(dp2206
Vmenu
p2207
(lp2208
S'food'
p2209
assS'1974'
p2210
(dp2211
Vwas
p2212
(lp2213
S'food'
p2214
aS'ambiance'
p2215
asVit
p2216
(lp2217
g2214
assS'1605'
p2218
(dp2219
sS'355'
p2220
(dp2221
sS'353'
p2222
(dp2223
VMargarita
p2224
(lp2225
S'food'
p2226
assS'352'
p2227
(dp2228
sS'950'
p2229
(dp2230
sS'802'
p2231
(dp2232
VLobster
p2233
(lp2234
S'food'
p2235
asVOne
p2236
(lp2237
g2235
assS'1614'
p2238
(dp2239
Vcook
p2240
(lp2241
S'service'
p2242
asVaunt
p2243
(lp2244
g2242
assS'216'
p2245
(dp2246
Vtry
p2247
(lp2248
S'service'
p2249
assS'214'
p2250
(dp2251
Vattentive
p2252
(lp2253
S'food'
p2254
assS'1967'
p2255
(dp2256
sS'213'
p2257
(dp2258
Vwater
p2259
(lp2260
S'food'
p2261
asVmouth
p2262
(lp2263
g2261
aS'service'
p2264
assS'210'
p2265
(dp2266
sS'2847'
p2267
(dp2268
Vwaiter
p2269
(lp2270
S'food'
p2271
aS'service'
p2272
asVdessert
p2273
(lp2274
g2271
aS'price'
p2275
ag2272
asVBirthday
p2276
(lp2277
g2271
asVsaw
p2278
(lp2279
g2271
ag2275
ag2272
asVgift
p2280
(lp2281
g2271
ag2275
ag2272
assS'2844'
p2282
(dp2283
Vrestaurant
p2284
(lp2285
S'service'
p2286
assS'2968'
p2287
(dp2288
sS'3323'
p2289
(dp2290
sS'3326'
p2291
(dp2292
sS'3043'
p2293
(dp2294
Vreasonably
p2295
(lp2296
S'food'
p2297
aS'serve'
p2298
asVget
p2299
(lp2300
g2298
assS'41'
p2301
(dp2302
sS'3044'
p2303
(dp2304
sS'3046'
p2305
(dp2306
Vposts
p2307
(lp2308
S'service'
p2309
assS'2323'
p2310
(dp2311
sS'2321'
p2312
(dp2313
Vplace
p2314
(lp2315
S'atmosphere'
p2316
assS'2320'
p2317
(dp2318
Vslow
p2319
(lp2320
S'food'
p2321
aS'service'
p2322
asVService
p2323
(lp2324
g2322
asVpeople
p2325
(lp2326
g2321
aS'military_service'
p2327
ag2322
assS'1770'
p2328
(dp2329
Vsushi
p2330
(lp2331
S'food'
p2332
asVhad
p2333
(lp2334
g2332
aS'serve'
p2335
assS'2325'
p2336
(dp2337
Vavailable
p2338
(lp2339
S'food'
p2340
aS'service'
p2341
asVdishes
p2342
(lp2343
g2341
assS'1778'
p2344
(dp2345
Vnothing
p2346
(lp2347
S'food'
p2348
aS'atmosphere'
p2349
asVatmosphere
p2350
(lp2351
g2349
assS'334'
p2352
(dp2353
Vfood
p2354
(lp2355
S'food'
p2356
asVwas
p2357
(lp2358
g2356
aS'ambiance'
p2359
assS'1676'
p2360
(dp2361
sS'3488'
p2362
(dp2363
sS'1097'
p2364
(dp2365
Vcuisine
p2366
(lp2367
S'overhaul'
p2368
aS'service'
p2369
asVspot
p2370
(lp2371
g2369
assS'679'
p2372
(dp2373
sS'1093'
p2374
(dp2375
VRoth
p2376
(lp2377
S'service'
p2378
asVcity
p2379
(lp2380
S'ambiance'
p2381
ag2378
asVrestaurant
p2382
(lp2383
g2378
assS'1154'
p2384
(dp2385
sS'1156'
p2386
(dp2387
VJimmy
p2388
(lp2389
S'service'
p2390
assS'1150'
p2391
(dp2392
VJimmy
p2393
(lp2394
S'service'
p2395
assS'3487'
p2396
(dp2397
sS'260'
p2398
(dp2399
Vdish
p2400
(lp2401
S'service'
p2402
assS'3133'
p2403
(dp2404
Vphrase
p2405
(lp2406
S'service'
p2407
asVhot
p2408
(lp2409
S'food'
p2410
ag2407
assS'3647'
p2411
(dp2412
sS'2998'
p2413
(dp2414
Vfood
p2415
(lp2416
S'food'
p2417
asVplace
p2418
(lp2419
g2417
aS'atmosphere'
p2420
asVgarden
p2421
(lp2422
g2417
ag2420
aS'ambiance'
p2423
assS'2553'
p2424
(dp2425
sS'3038'
p2426
(dp2427
VStaffs
p2428
(lp2429
S'military_service'
p2430
asVfriendly
p2431
(lp2432
g2430
assS'1977'
p2433
(dp2434
sS'1556'
p2435
(dp2436
sS'2991'
p2437
(dp2438
Vsteak
p2439
(lp2440
S'food'
p2441
asVfatty
p2442
(lp2443
g2441
aS'service'
p2444
assS'57'
p2445
(dp2446
sS'2492'
p2447
(dp2448
sS'3030'
p2449
(dp2450
sS'2995'
p2451
(dp2452
Vscallops
p2453
(lp2454
S'food'
p2455
assS'2390'
p2456
(dp2457
g251
(lp2458
S'food'
p2459
asVdish
p2460
(lp2461
g2459
aS'service'
p2462
asVsum
p2463
(lp2464
g2459
ag2462
asVsure
p2465
(lp2466
g2459
asVitem
p2467
(lp2468
g2459
ag2462
assS'54'
p2469
(dp2470
VBrewery
p2471
(lp2472
S'atmosphere'
p2473
aS'service'
p2474
asVway
p2475
(lp2476
g2473
assS'1411'
p2477
(dp2478
sS'2252'
p2479
(dp2480
Voblige
p2481
(lp2482
S'food'
p2483
assS'1416'
p2484
(dp2485
sS'2399'
p2486
(dp2487
Vportions
p2488
(lp2489
S'atmosphere'
p2490
assS'2779'
p2491
(dp2492
Vappetizers
p2493
(lp2494
S'food'
p2495
asVordered
p2496
(lp2497
g2495
asVgave
p2498
(lp2499
g2495
assS'1320'
p2500
(dp2501
VNothing
p2502
(lp2503
S'food'
p2504
asVobvious
p2505
(lp2506
g2504
assS'2474'
p2507
(dp2508
Vfood
p2509
(lp2510
S'food'
p2511
asVstuff
p2512
(lp2513
g2511
assS'1326'
p2514
(dp2515
Vfood
p2516
(lp2517
S'food'
p2518
aS'service'
p2519
asVfresh
p2520
(lp2521
g2518
ag2519
asVtreated
p2522
(lp2523
g2519
assS'3003'
p2524
(dp2525
Vfish
p2526
(lp2527
S'food'
p2528
assS'2471'
p2529
(dp2530
sS'1325'
p2531
(dp2532
Vgirlfriend
p2533
(lp2534
S'service'
p2535
asVrelaxing
p2536
(lp2537
g2535
assS'983'
p2538
(dp2539
Vlunch
p2540
(lp2541
S'food'
p2542
assS'2772'
p2543
(dp2544
Vmenu
p2545
(lp2546
S'food'
p2547
assS'2478'
p2548
(dp2549
Vdishes
p2550
(lp2551
S'service'
p2552
assS'2785'
p2553
(dp2554
Vwarm
p2555
(lp2556
S'military_service'
p2557
aS'service'
p2558
asVstaff
p2559
(lp2560
g2557
assS'2780'
p2561
(dp2562
sS'2782'
p2563
(dp2564
Vaverage
p2565
(lp2566
S'food'
p2567
assS'1851'
p2568
(dp2569
sS'1857'
p2570
(dp2571
Vdrink
p2572
(lp2573
S'food'
p2574
asVspace
p2575
(lp2576
g2574
aS'ambiance'
p2577
assS'2172'
p2578
(dp2579
sS'918'
p2580
(dp2581
Vgo
p2582
(lp2583
S'service'
p2584
assS'1399'
p2585
(dp2586
Vowner
p2587
(lp2588
S'service'
p2589
asVfood
p2590
(lp2591
S'food'
p2592
ag2589
assS'1398'
p2593
(dp2594
Vlunch
p2595
(lp2596
S'food'
p2597
aS'service'
p2598
asVit
p2599
(lp2600
g2597
asVchoice
p2601
(lp2602
g2597
ag2598
assS'917'
p2603
(dp2604
Vgood
p2605
(lp2606
S'price'
p2607
aS'service'
p2608
asVService
p2609
(lp2610
g2608
assS'1528'
p2611
(dp2612
Vfood
p2613
(lp2614
S'food'
p2615
asVhave
p2616
(lp2617
g2615
aS'serve'
p2618
assS'913'
p2619
(dp2620
Vhall
p2621
(lp2622
S'service'
p2623
asVrestaurant
p2624
(lp2625
g2623
assS'2259'
p2626
(dp2627
Vate
p2628
(lp2629
S'food'
p2630
assS'1420'
p2631
(dp2632
sS'2258'
p2633
(dp2634
sS'2608'
p2635
(dp2636
sS'1932'
p2637
(dp2638
Vrestaurant
p2639
(lp2640
S'service'
p2641
assS'665'
p2642
(dp2643
Vrecommend
p2644
(lp2645
S'service'
p2646
assS'3262'
p2647
(dp2648
sS'2256'
p2649
(dp2650
sS'1939'
p2651
(dp2652
Vgem
p2653
(lp2654
S'food'
p2655
assS'3467'
p2656
(dp2657
Vfood
p2658
(lp2659
S'food'
p2660
assS'3464'
p2661
(dp2662
Vreading
p2663
(lp2664
S'service'
p2665
assS'3463'
p2666
(dp2667
sS'1426'
p2668
(dp2669
g251
(lp2670
S'food'
p2671
asVis
p2672
(lp2673
g2671
asVwas
p2674
(lp2675
g2671
aS'ambiance'
p2676
assS'3506'
p2677
(dp2678
g251
(lp2679
S'food'
p2680
aS'overhaul'
p2681
asVcuisine
p2682
(lp2683
g2681
asVthought
p2684
(lp2685
g2680
ag2681
assS'848'
p2686
(dp2687
sS'2672'
p2688
(dp2689
sS'3365'
p2690
(dp2691
VOpera
p2692
(lp2693
S'service'
p2694
assS'1417'
p2695
(dp2696
sS'3511'
p2697
(dp2698
Vgentleman
p2699
(lp2700
S'service'
p2701
asVcame
p2702
(lp2703
S'food'
p2704
ag2701
assS'2928'
p2705
(dp2706
Vnothing
p2707
(lp2708
S'food'
p2709
aS'atmosphere'
p2710
asVProblem
p2711
(lp2712
g2710
assS'2564'
p2713
(dp2714
sS'3362'
p2715
(dp2716
Vis
p2717
(lp2718
S'food'
p2719
aS'military_service'
p2720
asVpart
p2721
(lp2722
g2719
ag2720
aS'service'
p2723
asVfamily
p2724
(lp2725
g2720
assS'2472'
p2726
(dp2727
Vfocus
p2728
(lp2729
S'service'
p2730
assS'3215'
p2731
(dp2732
Vdisgusting
p2733
(lp2734
S'food'
p2735
assS'1985'
p2736
(dp2737
sS'1980'
p2738
(dp2739
sS'1638'
p2740
(dp2741
Vprices
p2742
(lp2743
S'monetary_value'
p2744
asVreasonable
p2745
(lp2746
S'food'
p2747
ag2744
assS'1639'
p2748
(dp2749
Vlist
p2750
(lp2751
S'price'
p2752
assS'1733'
p2753
(dp2754
VDecor
p2755
(lp2756
S'service'
p2757
assS'1735'
p2758
(dp2759
sS'2499'
p2760
(dp2761
sS'980'
p2762
(dp2763
sS'568'
p2764
(dp2765
Vtried
p2766
(lp2767
S'food'
p2768
asVhe
p2769
(lp2770
g2768
assS'755'
p2771
(dp2772
sS'560'
p2773
(dp2774
Vmenu
p2775
(lp2776
S'food'
p2777
asVdiverse
p2778
(lp2779
g2777
assS'3609'
p2780
(dp2781
sS'758'
p2782
(dp2783
Vfood
p2784
(lp2785
S'food'
p2786
assS'564'
p2787
(dp2788
Vtable
p2789
(lp2790
S'food'
p2791
assS'3071'
p2792
(dp2793
Vtables
p2794
(lp2795
S'food'
p2796
assS'3072'
p2797
(dp2798
Vprompt
p2799
(lp2800
S'service'
p2801
asVService
p2802
(lp2803
g2801
assS'3073'
p2804
(dp2805
VFood
p2806
(lp2807
S'food'
p2808
assS'1590'
p2809
(dp2810
Vtime
p2811
(lp2812
S'service'
p2813
assS'3078'
p2814
(dp2815
sS'2957'
p2816
(dp2817
Vlarge
p2818
(lp2819
S'food'
p2820
aS'atmosphere'
p2821
aS'service'
p2822
asVsweet
p2823
(lp2824
g2820
ag2822
asVbill
p2825
(lp2826
g2820
ag2822
asVfood
p2827
(lp2828
g2820
ag2821
ag2822
asVwaiters
p2829
(lp2830
g2822
assS'3177'
p2831
(dp2832
Vate
p2833
(lp2834
S'food'
p2835
assS'220'
p2836
(dp2837
Vwants
p2838
(lp2839
S'atmosphere'
p2840
aS'military_service'
p2841
asVwho
p2842
(lp2843
g2841
assS'1024'
p2844
(dp2845
sS'1027'
p2846
(dp2847
Vsake
p2848
(lp2849
S'food'
p2850
aS'service'
p2851
asVbottle
p2852
(lp2853
g2850
ag2851
asVsashimi
p2854
(lp2855
g2850
assS'2210'
p2856
(dp2857
Vspicy
p2858
(lp2859
S'food'
p2860
asVtimes
p2861
(lp2862
g2860
aS'service'
p2863
assS'2216'
p2864
(dp2865
Vprice
p2866
(lp2867
S'monetary_value'
p2868
assS'2215'
p2869
(dp2870
Vprices
p2871
(lp2872
S'monetary_value'
p2873
asVambience
p2874
(lp2875
S'atmosphere'
p2876
ag2873
asVfun
p2877
(lp2878
g2876
ag2873
aS'service'
p2879
asVtasty
p2880
(lp2881
S'food'
p2882
ag2876
ag2873
ag2879
asVfood
p2883
(lp2884
g2882
ag2876
ag2873
ag2879
assS'2214'
p2885
(dp2886
sS'1186'
p2887
(dp2888
sS'1187'
p2889
(dp2890
Vis
p2891
(lp2892
S'food'
p2893
asVit
p2894
(lp2895
g2893
assS'390'
p2896
(dp2897
Vask
p2898
(lp2899
S'food'
p2900
assS'1748'
p2901
(dp2902
sS'723'
p2903
(dp2904
g251
(lp2905
S'food'
p2906
asVcame
p2907
(lp2908
g2906
assS'721'
p2909
(dp2910
Vit
p2911
(lp2912
S'food'
p2913
asVlooks
p2914
(lp2915
g2913
aS'atmosphere'
p2916
assS'2350'
p2917
(dp2918
Vtuna
p2919
(lp2920
S'food'
p2921
assS'1742'
p2922
(dp2923
Vlive
p2924
(lp2925
S'food'
p2926
assS'151'
p2927
(dp2928
sS'1165'
p2929
(dp2930
Vit
p2931
(lp2932
S'food'
p2933
asVworth
p2934
(lp2935
g2933
aS'price'
p2936
assS'2438'
p2937
(dp2938
sS'1162'
p2939
(dp2940
Vstrict
p2941
(lp2942
S'food'
p2943
aS'military_service'
p2944
asVcombination
p2945
(lp2946
g2944
assS'1163'
p2947
(dp2948
Vservice
p2949
(lp2950
S'service'
p2951
assS'1207'
p2952
(dp2953
Vtuna
p2954
(lp2955
S'food'
p2956
asVgari
p2957
(lp2958
g2956
aS'service'
p2959
assS'1168'
p2960
(dp2961
sS'1169'
p2962
(dp2963
Vbills
p2964
(lp2965
S'service'
p2966
assS'2435'
p2967
(dp2968
g251
(lp2969
S'food'
p2970
asVrecommend
p2971
(lp2972
g2970
aS'service'
p2973
assS'959'
p2974
(dp2975
Vatmosphere
p2976
(lp2977
S'atmosphere'
p2978
asVfriendly
p2979
(lp2980
g2978
aS'military_service'
p2981
aS'service'
p2982
asVservice
p2983
(lp2984
g2978
ag2982
assS'1366'
p2985
(dp2986
Vgrace
p2987
(lp2988
S'atmosphere'
p2989
asVdrinks
p2990
(lp2991
S'food'
p2992
ag2989
assS'47'
p2993
(dp2994
Vplace
p2995
(lp2996
S'atmosphere'
p2997
asVworth
p2998
(lp2999
g2997
aS'price'
p3000
assS'637'
p3001
(dp3002
Vrooms
p3003
(lp3004
S'military_service'
p3005
assS'42'
p3006
(dp3007
VHEARTLAND
p3008
(lp3009
S'ambiance'
p3010
assS'87'
p3011
(dp3012
sS'1447'
p3013
(dp3014
Vthirsty
p3015
(lp3016
S'food'
p3017
asVHe
p3018
(lp3019
g3017
assS'1299'
p3020
(dp3021
sS'639'
p3022
(dp3023
sS'1119'
p3024
(dp3025
Vmenu
p3026
(lp3027
S'food'
p3028
aS'atmosphere'
p3029
asVmade
p3030
(lp3031
g3028
ag3029
aS'service'
p3032
asVplace
p3033
(lp3034
g3029
asVspecial
p3035
(lp3036
g3028
ag3029
assS'934'
p3037
(dp3038
Vmeat
p3039
(lp3040
S'food'
p3041
assS'1297'
p3042
(dp3043
Vrude
p3044
(lp3045
S'food'
p3046
assS'1566'
p3047
(dp3048
sS'1295'
p3049
(dp3050
Vservice
p3051
(lp3052
S'service'
p3053
assS'1558'
p3054
(dp3055
Vdeal
p3056
(lp3057
S'service'
p3058
assS'2004'
p3059
(dp3060
Vgo
p3061
(lp3062
S'service'
p3063
assS'1782'
p3064
(dp3065
sS'484'
p3066
(dp3067
sS'482'
p3068
(dp3069
sS'3428'
p3070
(dp3071
Vbe
p3072
(lp3073
S'food'
p3074
assS'1808'
p3075
(dp3076
Vtaste
p3077
(lp3078
S'food'
p3079
aS'service'
p3080
asVmouth
p3081
(lp3082
g3079
ag3080
asVit
p3083
(lp3084
g3079
asVservice
p3085
(lp3086
g3079
ag3080
assS'2002'
p3087
(dp3088
sS'470'
p3089
(dp3090
sS'2007'
p3091
(dp3092
sS'474'
p3093
(dp3094
sS'479'
p3095
(dp3096
Vworld
p3097
(lp3098
S'food'
p3099
ass.