(dp0
S'2068'
p1
(dp2
sS'3088'
p3
(dp4
Vkamasutra
p5
S'neutral'
p6
ssS'3258'
p7
(dp8
Vrestaurant
p9
S'positive'
p10
ssS'3250'
p11
(dp12
Vliving
p13
g6
ssS'3254'
p14
(dp15
Vfood
p16
g10
ssS'3558'
p17
(dp18
Vmanna
p19
g6
sVdishes
p20
g6
ssS'346'
p21
(dp22
Vis
p23
g6
sVplace
p24
g10
ssS'341'
p25
(dp26
Vseasoning
p27
g10
sVbland
p28
g6
sVsushi
p29
S'negative'
p30
ssS'810'
p31
(dp32
sS'1148'
p33
(dp34
sS'817'
p35
(dp36
Vwaiter
p37
g30
ssS'2853'
p38
(dp39
sS'1796'
p40
(dp41
Vguys
p42
g6
ssS'1794'
p43
(dp44
Voverpriced
p45
g6
ssS'1491'
p46
(dp47
Vsauce
p48
g30
sVcrust
p49
g10
sVdelicious
p50
g6
ssS'1496'
p51
(dp52
sS'917'
p53
(dp54
Vgood
p55
g6
sVService
p56
g6
ssS'1701'
p57
(dp58
VWinnie
p59
g10
sVcrew
p60
g30
ssS'1060'
p61
(dp62
Vgreat
p63
g6
sVSpreads
p64
g6
ssS'2314'
p65
(dp66
Vgreat
p67
g6
sVservice
p68
g6
ssS'2312'
p69
(dp70
Vgoing
p71
g6
ssS'1669'
p72
(dp73
Vplace
p74
g6
ssS'299'
p75
(dp76
Vbenedict
p77
g30
sVservice
p78
g6
ssS'295'
p79
(dp80
VEverything
p81
g6
sVup
p82
g6
ssS'292'
p83
(dp84
sS'1086'
p85
(dp86
sS'2289'
p87
(dp88
Vgood
p89
g6
sVservice
p90
g6
sVresturant
p91
g6
ssS'195'
p92
(dp93
Vweather
p94
g6
ssS'196'
p95
(dp96
Vstaff
p97
g10
ssS'190'
p98
(dp99
sS'192'
p100
(dp101
sS'3679'
p102
(dp103
Vplace
p104
g10
ssS'278'
p105
(dp106
Vfusion
p107
g30
ssS'3149'
p108
(dp109
Vcame
p110
g6
ssS'3677'
p111
(dp112
Vplate
p113
g6
ssS'2989'
p114
(dp115
sS'2547'
p116
(dp117
VSpecials
p118
g6
sVGnochi
p119
g6
ssS'3663'
p120
(dp121
Vdessert
p122
g10
ssS'2987'
p123
(dp124
Vfood
p125
g10
ssS'3022'
p126
(dp127
Vlove
p128
g6
ssS'3388'
p129
(dp130
sS'2268'
p131
(dp132
sS'527'
p133
(dp134
Vcouple
p135
g10
sVdrink
p136
g10
ssS'2387'
p137
(dp138
VSeveral
p139
g6
sVhad
p140
g6
ssS'2389'
p141
(dp142
Vdish
p143
g30
sVfood
p144
g30
ssS'2263'
p145
(dp146
Vservice
p147
g6
ssS'2261'
p148
(dp149
Vlist
p150
g6
ssS'3581'
p151
(dp152
Vcheeseburgers
p153
g6
ssS'3583'
p154
(dp155
Vfell
p156
g6
ssS'1231'
p157
(dp158
Vbagels
p159
g10
ssS'1233'
p160
(dp161
VHH
p162
g6
ssS'441'
p163
(dp164
Vservice
p165
g6
ssS'3668'
p166
(dp167
Vpresentation
p168
g10
ssS'2103'
p169
(dp170
Vbrought
p171
g6
sVfresh
p172
g6
ssS'1517'
p173
(dp174
Vplace
p175
g10
ssS'902'
p176
(dp177
sS'900'
p178
(dp179
VInterior
p180
g6
sVwa
p181
g6
ssS'906'
p182
(dp183
sS'2488'
p184
(dp185
sS'904'
p186
(dp187
Vgotten
p188
g6
ssS'1536'
p189
(dp190
sS'1534'
p191
(dp192
sS'2169'
p193
(dp194
sS'644'
p195
(dp196
sS'3094'
p197
(dp198
sS'3095'
p199
(dp200
VI
p201
g6
sVfan
p202
g6
sVpaneer
p203
g6
ssS'649'
p204
(dp205
sS'1539'
p206
(dp207
sS'2614'
p208
(dp209
Vplace
p210
g30
ssS'2611'
p211
(dp212
sS'2610'
p213
(dp214
Vtoppings
p215
g6
ssS'1946'
p216
(dp217
VVillage
p218
g6
ssS'331'
p219
(dp220
Vfriend
p221
g10
ssS'330'
p222
(dp223
sS'333'
p224
(dp225
VBoy
p226
g6
sVwa
p227
g6
ssS'1908'
p228
(dp229
Vrestaraurant
p230
g6
sVreservations
p231
g6
sVsmall
p232
g6
ssS'3296'
p233
(dp234
Vit
p235
g6
sVcrowded
p236
g6
ssS'1905'
p237
(dp238
sS'1902'
p239
(dp240
VSteak
p241
g10
ssS'3450'
p242
(dp243
sS'3518'
p244
(dp245
VEw
p246
g6
ssS'3457'
p247
(dp248
Vwe
p249
g6
sVwalked
p250
g6
ssS'3458'
p251
(dp252
sS'3510'
p253
(dp254
Vexperience
p255
g6
sVwa
p256
g6
sVrestaurant
p257
g6
ssS'2686'
p258
(dp259
Vplace
p260
g10
sVservice
p261
g6
ssS'1467'
p262
(dp263
Vtimes
p264
g10
ssS'1993'
p265
(dp266
sS'1992'
p267
(dp268
sS'1627'
p269
(dp270
Vservice
p271
g6
ssS'1997'
p272
(dp273
g201
g6
sVfelt
p274
g6
ssS'3200'
p275
(dp276
sS'1462'
p277
(dp278
V$
p279
g6
sVdishes
p280
g10
ssS'559'
p281
(dp282
sS'3638'
p283
(dp284
Vcheese
p285
g6
sVWe
p286
g6
sVfigured
p287
g6
sVlunch
p288
g10
sVpizza
p289
g30
sVPizza
p290
g6
ssS'747'
p291
(dp292
sS'555'
p293
(dp294
Vplace
p295
g10
ssS'3634'
p296
(dp297
sS'3632'
p298
(dp299
sS'3633'
p300
(dp301
Vthey
p302
g6
sVservice
p303
g6
sVtreat
p304
g6
ssS'2573'
p305
(dp306
sS'3063'
p307
(dp308
sS'2948'
p309
(dp310
sS'2945'
p311
(dp312
Vroom
p313
g10
ssS'236'
p314
(dp315
Vmoney
p316
g6
sVBo
p317
g10
ssS'1053'
p318
(dp319
Vstuff
p320
g6
ssS'2341'
p321
(dp322
sS'2226'
p323
(dp324
Vprice
p325
g10
sVreasonable
p326
g6
ssS'2224'
p327
(dp328
sS'1192'
p329
(dp330
Vsushi
p331
g10
ssS'1195'
p332
(dp333
Vprices
p334
g6
sVsushi
p335
g30
sVanything
p336
g30
ssS'3344'
p337
(dp338
Vofficial
p339
g10
sVB.O.G
p340
g10
sVtime
p341
g30
ssS'1693'
p342
(dp343
sS'1756'
p344
(dp345
sS'1699'
p346
(dp347
Vdumplings
p348
g30
ssS'1177'
p349
(dp350
sS'147'
p351
(dp352
Vstyle
p353
g10
ssS'140'
p354
(dp355
sS'1170'
p356
(dp357
Vgo
p358
g6
ssS'2468'
p359
(dp360
sS'611'
p361
(dp362
sS'617'
p363
(dp364
sS'1178'
p365
(dp366
sS'3708'
p367
(dp368
sS'1885'
p369
(dp370
sS'2856'
p371
(dp372
Vspace
p373
g10
sVthey
p374
g6
sV've
p375
g6
ssS'1882'
p376
(dp377
sS'3704'
p378
(dp379
sS'1285'
p380
(dp381
g201
g6
sVlive
p382
g6
ssS'2088'
p383
(dp384
sS'2122'
p385
(dp386
Vhuge
p387
g6
sVsushi
p388
g30
sVsizes
p389
g30
ssS'949'
p390
(dp391
Vtea
p392
g10
sVwine
p393
g10
ssS'2129'
p394
(dp395
sS'2083'
p396
(dp397
Vso-so
p398
g6
sVsum
p399
g6
ssS'944'
p400
(dp401
g201
g6
sVwent
p402
g6
ssS'945'
p403
(dp404
Vcafe
p405
g10
sVservice
p406
g6
ssS'1289'
p407
(dp408
sS'943'
p409
(dp410
sS'941'
p411
(dp412
Vservice
p413
g6
sVexcellent
p414
g6
ssS'2539'
p415
(dp416
Vcatcher
p417
g6
sVspecial
p418
g30
sVselections
p419
g30
ssS'517'
p420
(dp421
Vpage
p422
g10
ssS'1572'
p423
(dp424
Vfun
p425
g6
sVJeckll
p426
g6
ssS'687'
p427
(dp428
sS'2535'
p429
(dp430
sS'2712'
p431
(dp432
Vtime
p433
g30
ssS'2710'
p434
(dp435
sS'3341'
p436
(dp437
Vit
p438
g6
sVwa
p439
g6
ssS'1300'
p440
(dp441
sS'2714'
p442
(dp443
Vmenu
p444
g30
ssS'622'
p445
(dp446
Vadvice
p447
g10
sVplace
p448
g10
ssS'2652'
p449
(dp450
Vlights
p451
g6
sVyou
p452
g6
sVputting
p453
g6
sVrestaurant
p454
g10
ssS'2655'
p455
(dp456
sS'137'
p457
(dp458
Vplace
p459
g10
sVcrowded
p460
g6
ssS'490'
p461
(dp462
sS'3419'
p463
(dp464
Vcuisine
p465
g10
sVis
p466
g6
ssS'1839'
p467
(dp468
VFood
p469
g6
sVgreat
p470
g6
ssS'29'
p471
(dp472
Vroom
p473
g6
ssS'407'
p474
(dp475
Vsushi
p476
g30
sVseemed
p477
g6
ssS'2407'
p478
(dp479
Vreason
p480
g6
ssS'2156'
p481
(dp482
VNYC
p483
g6
ssS'938'
p484
(dp485
sS'403'
p486
(dp487
Vaverage
p488
g6
sVit
p489
g6
sVnight
p490
g30
ssS'2403'
p491
(dp492
sS'2400'
p493
(dp494
Vtofu
p495
g6
sVsalad
p496
g30
sVbasic
p497
g6
ssS'2153'
p498
(dp499
sS'930'
p500
(dp501
Vvodka
p502
g10
sVcocktail
p503
g10
ssS'937'
p504
(dp505
VPRICES
p506
g6
ssS'936'
p507
(dp508
Vcame
p509
g6
ssS'935'
p510
(dp511
sS'2409'
p512
(dp513
Vdelivery
p514
g6
sVheel
p515
g6
ssS'87'
p516
(dp517
sS'1952'
p518
(dp519
Vfood
p520
g10
sVservice
p521
g6
sVexcellent
p522
g6
ssS'3567'
p523
(dp524
Vfritter
p525
g6
ssS'3242'
p526
(dp527
sS'3247'
p528
(dp529
Vspinach
p530
g30
ssS'3245'
p531
(dp532
Vbuns
p533
g30
sVgood
p534
g6
ssS'378'
p535
(dp536
Vfish
p537
g10
ssS'827'
p538
(dp539
Vsurprise
p540
g10
sVIt
p541
g6
ssS'826'
p542
(dp543
sS'1063'
p544
(dp545
Vforgivable
p546
g6
ssS'822'
p547
(dp548
Vreviews
p549
g10
ssS'704'
p550
(dp551
Vprices
p552
g6
sVfabulous
p553
g6
sVcheap
p554
g6
sVit
p555
g6
ssS'705'
p556
(dp557
VGREAT
p558
g6
sVportions
p559
g6
sVfood
p560
g10
sVcheap
p561
g6
sVIT
p562
g6
sVit
p563
g6
sVNOT
p564
g6
sVsmall
p565
g6
sVmean
p566
g6
ssS'706'
p567
(dp568
sS'1483'
p569
(dp570
Vfriendlier
p571
g6
sVThey
p572
g6
ssS'1480'
p573
(dp574
sS'397'
p575
(dp576
Vroll
p577
g10
ssS'1485'
p578
(dp579
VPizza
p580
g6
ssS'394'
p581
(dp582
Vassortment
p583
g10
sVfish
p584
g10
ssS'3306'
p585
(dp586
sS'3303'
p587
(dp588
Voz
p589
g30
sVBisque
p590
g6
ssS'2309'
p591
(dp592
sS'928'
p593
(dp594
g201
g6
sVcare
p595
g6
ssS'1710'
p596
(dp597
Vwaiter
p598
g30
ssS'1717'
p599
(dp600
Vtake
p601
g6
ssS'1716'
p602
(dp603
VStrike
p604
g6
sVplace
p605
g10
ssS'1715'
p606
(dp607
sS'1718'
p608
(dp609
sS'2305'
p610
(dp611
sS'2145'
p612
(dp613
sS'1653'
p614
(dp615
sS'587'
p616
(dp617
sS'1139'
p618
(dp619
sS'3666'
p620
(dp621
sS'580'
p622
(dp623
Vconcluded
p624
g6
sVWe
p625
g6
ssS'3662'
p626
(dp627
Vdish
p628
g6
sVattentive
p629
g6
sVservice
p630
g6
ssS'2281'
p631
(dp632
sS'2285'
p633
(dp634
Vfood
p635
g6
ssS'588'
p636
(dp637
Vfood
p638
g10
sVcool
p639
g6
sVexperience
p640
g10
sVexcellent
p641
g6
ssS'1985'
p642
(dp643
sS'2838'
p644
(dp645
sS'3159'
p646
(dp647
Vcoffee
p648
g10
sVgood
p649
g6
ssS'2834'
p650
(dp651
sS'2275'
p652
(dp653
Vhole-in-the-wall
p654
g30
sVplace
p655
g10
ssS'3019'
p656
(dp657
Vcouple
p658
g10
sVhusband
p659
g10
ssS'1430'
p660
(dp661
Vplace
p662
g10
ssS'418'
p663
(dp664
Vminutes
p665
g30
ssS'2574'
p666
(dp667
Vorganic
p668
g6
sVIngredients
p669
g6
ssS'3016'
p670
(dp671
Vqualities
p672
g6
ssS'3017'
p673
(dp674
g201
g6
sVgirl
p675
g30
sVHUNGRY
p676
g6
ssS'3014'
p677
(dp678
Vwe
p679
g6
sVcall
p680
g10
sVentered
p681
g6
sVfirst
p682
g6
ssS'2571'
p683
(dp684
VAmbience
p685
g6
sVcute
p686
g6
ssS'2378'
p687
(dp688
Vshort-order
p689
g30
sVservice
p690
g6
ssS'2379'
p691
(dp692
Vlike
p693
g6
ssS'512'
p694
(dp695
Vd'
p696
g6
sVrude
p697
g6
ssS'1003'
p698
(dp699
sS'1001'
p700
(dp701
Vplace
p702
g10
ssS'1349'
p703
(dp704
Vevening
p705
g6
sVfriend
p706
g6
ssS'3590'
p707
(dp708
sS'2590'
p709
(dp710
sS'3595'
p711
(dp712
sS'629'
p713
(dp714
sS'2051'
p715
(dp716
Vname
p717
g10
ssS'974'
p718
(dp719
Vplace
p720
g30
sVcraving
p721
g30
sVtime
p722
g30
ssS'971'
p723
(dp724
Vchicken
p725
g6
ssS'970'
p726
(dp727
sS'3696'
p728
(dp729
sS'182'
p730
(dp731
Vdhosas
p732
g30
sVsomosas
p733
g6
sVdissapointing
p734
g6
ssS'180'
p735
(dp736
Vside
p737
g10
ssS'3089'
p738
(dp739
Vfan
p740
g30
ssS'1507'
p741
(dp742
Vstay
p743
g6
ssS'650'
p744
(dp745
Vis
p746
g6
ssS'185'
p747
(dp748
Vfood
p749
g6
sVdo
p750
g6
sVyou
p751
g6
sVspicy
p752
g10
ssS'3087'
p753
(dp754
Vdrinks
p755
g30
ssS'2114'
p756
(dp757
sS'2116'
p758
(dp759
Vrolls
p760
g30
ssS'659'
p761
(dp762
sS'2623'
p763
(dp764
Vplace
p765
g10
ssS'1123'
p766
(dp767
Vnight
p768
g6
sVrolls
p769
g6
sVkitchen
p770
g30
ssS'2624'
p771
(dp772
g201
g6
sVthought
p773
g6
sVplace
p774
g10
sVoverrated
p775
g6
ssS'3526'
p776
(dp777
Vgo
p778
g6
sVWe
p779
g6
ssS'3289'
p780
(dp781
sS'1508'
p782
(dp783
Vservice
p784
g6
ssS'1917'
p785
(dp786
Vfood
p787
g10
sVgood
p788
g6
ssS'862'
p789
(dp790
Vsimple
p791
g6
sVdecor
p792
g30
ssS'867'
p793
(dp794
sS'3117'
p795
(dp796
Vfood
p797
g10
ssS'2699'
p798
(dp799
sS'2696'
p800
(dp801
Vmenu
p802
g6
sVtasting
p803
g6
ssS'2029'
p804
(dp805
Vproblem
p806
g30
ssS'885'
p807
(dp808
Vfood
p809
g10
sVplace
p810
g10
sVhorrible
p811
g6
ssS'888'
p812
(dp813
Vwhat
p814
g6
sVasked
p815
g6
sVone
p816
g30
ssS'3672'
p817
(dp818
Vstaff
p819
g10
ssS'279'
p820
(dp821
VColonies
p822
g30
sVit
p823
g6
sVway
p824
g10
ssS'3233'
p825
(dp826
sS'1966'
p827
(dp828
Vplace
p829
g10
ssS'188'
p830
(dp831
Vpart
p832
g10
sVservice
p833
g6
ssS'1960'
p834
(dp835
sS'1613'
p836
(dp837
sS'1610'
p838
(dp839
Vpizza
p840
g30
ssS'328'
p841
(dp842
Vgreat
p843
g6
sg201
g6
sVit
p844
g6
sVended
p845
g6
sVplace
p846
g10
sVglad
p847
g6
ssS'3609'
p848
(dp849
sS'774'
p850
(dp851
sS'777'
p852
(dp853
sS'2877'
p854
(dp855
Vkids
p856
g10
sVlove
p857
g6
ssS'2876'
p858
(dp859
Vexperience
p860
g10
sVtime
p861
g6
ssS'206'
p862
(dp863
Vfood
p864
g10
sVis
p865
g6
sVits
p866
g6
sVdelicious
p867
g6
ssS'3625'
p868
(dp869
sS'3355'
p870
(dp871
Vcake
p872
g10
sVgelato
p873
g10
sg201
g6
sVthought
p874
g6
ssS'2979'
p875
(dp876
Vfood
p877
g10
sVaweful
p878
g6
ssS'72'
p879
(dp880
Vrestaurant
p881
g6
ssS'71'
p882
(dp883
Vwhat
p884
g6
sVMADE
p885
g6
sVservice
p886
g30
sVarea
p887
g10
sVplace
p888
g10
sVPizza
p889
g10
ssS'2546'
p890
(dp891
V's
p892
g6
ssS'1047'
p893
(dp894
VJapenese
p895
g6
sVfind
p896
g6
ssS'2235'
p897
(dp898
Vone
p899
g30
ssS'1683'
p900
(dp901
Vfood
p902
g10
sVservice
p903
g6
ssS'1687'
p904
(dp905
sS'1766'
p906
(dp907
VFood
p908
g6
ssS'1146'
p909
(dp910
sS'3520'
p911
(dp912
sS'3494'
p913
(dp914
sS'3570'
p915
(dp916
Vbuck
p917
g10
sVpeople
p918
g6
ssS'2954'
p919
(dp920
Vneighborhood
p921
g10
sVnice
p922
g6
ssS'2096'
p923
(dp924
Vplace
p925
g10
ssS'2093'
p926
(dp927
Vgo
p928
g6
ssS'3652'
p929
(dp930
Vcost
p931
g10
ssS'2526'
p932
(dp933
Vprices
p934
g6
sVtake
p935
g6
sVDeliveries
p936
g6
ssS'1302'
p937
(dp938
Vprices
p939
g30
sVget
p940
g6
ssS'1540'
p941
(dp942
sS'695'
p943
(dp944
VCa
p945
g6
sVwait
p946
g6
ssS'3120'
p947
(dp948
Vfood
p949
g10
ssS'543'
p950
(dp951
sS'2382'
p952
(dp953
Vtry
p954
g6
sVfetish
p955
g10
sVyou
p956
g6
ssS'547'
p957
(dp958
sS'544'
p959
(dp960
Vspot
p961
g6
sVIt
p962
g6
ssS'2246'
p963
(dp964
Vgo
p965
g6
ssS'1466'
p966
(dp967
Vconversation
p968
g10
sVattorney
p969
g10
sVside
p970
g10
ssS'2241'
p971
(dp972
sS'2243'
p973
(dp974
Vprices
p975
g6
sVnear
p976
g6
sVCollege
p977
g6
sVlocation
p978
g10
sVreasonable
p979
g6
sVgo
p980
g6
ssS'997'
p981
(dp982
sS'2467'
p983
(dp984
sS'2461'
p985
(dp986
VCUISINE
p987
g6
sVABOUT
p988
g6
ssS'992'
p989
(dp990
Vkind
p991
g10
ssS'2704'
p992
(dp993
sS'2701'
p994
(dp995
Vfood
p996
g6
sVgreat
p997
g6
sVfantastic
p998
g6
sVService
p999
g6
ssS'126'
p1000
(dp1001
VSeating
p1002
g6
sV's
p1003
g6
ssS'2216'
p1004
(dp1005
Vprice
p1006
g10
ssS'2748'
p1007
(dp1008
Vthing
p1009
g6
sVservice
p1010
g6
ssS'2215'
p1011
(dp1012
Vprices
p1013
g6
sVambience
p1014
g30
sVfun
p1015
g6
sVtasty
p1016
g6
sVfood
p1017
g10
ssS'414'
p1018
(dp1019
Vfood
p1020
g10
ssS'2146'
p1021
(dp1022
Vfood
p1023
g10
sVatmosphere
p1024
g10
sVmake
p1025
g6
sVstaff
p1026
g10
ssS'2798'
p1027
(dp1028
sS'411'
p1029
(dp1030
Vbrought
p1031
g6
sVwa
p1032
g6
ssS'413'
p1033
(dp1034
sS'2060'
p1035
(dp1036
Vhall
p1037
g30
ssS'922'
p1038
(dp1039
Vservice
p1040
g6
ssS'2796'
p1041
(dp1042
Vfood
p1043
g10
ssS'419'
p1044
(dp1045
sS'2066'
p1046
(dp1047
sS'313'
p1048
(dp1049
sS'317'
p1050
(dp1051
sS'314'
p1052
(dp1053
Vquality
p1054
g10
sVpint
p1055
g10
ssS'1920'
p1056
(dp1057
Varrived
p1058
g6
ssS'1921'
p1059
(dp1060
Vfood
p1061
g10
sVsurprise
p1062
g6
ssS'448'
p1063
(dp1064
Vpies
p1065
g6
sVget
p1066
g6
ssS'3272'
p1067
(dp1068
Vcollection
p1069
g10
ssS'832'
p1070
(dp1071
sS'3473'
p1072
(dp1073
VLOUD
p1074
g6
ssS'3479'
p1075
(dp1076
sS'1748'
p1077
(dp1078
sS'363'
p1079
(dp1080
Vfine
p1081
g6
sVlist
p1082
g10
ssS'1168'
p1083
(dp1084
sS'2937'
p1085
(dp1086
Vtreat
p1087
g6
ssS'2933'
p1088
(dp1089
sS'2931'
p1090
(dp1091
Vfood
p1092
g10
sg201
g6
sVgood
p1093
g6
sVleft
p1094
g6
ssS'382'
p1095
(dp1096
Vcome
p1097
g6
sVcalamari
p1098
g30
sVnoodles
p1099
g6
sVyummy
p1100
g6
ssS'3313'
p1101
(dp1102
Vbday
p1103
g30
sVwent
p1104
g6
ssS'444'
p1105
(dp1106
VPatsy
p1107
g6
ssS'784'
p1108
(dp1109
Vplace
p1110
g10
ssS'785'
p1111
(dp1112
Vfeel
p1113
g6
sVzen
p1114
g6
ssS'2065'
p1115
(dp1116
Vgo
p1117
g6
ssS'1643'
p1118
(dp1119
sS'1642'
p1120
(dp1121
Vhad
p1122
g6
ssS'1649'
p1123
(dp1124
Vsushi
p1125
g10
ssS'2692'
p1126
(dp1127
Vattentive
p1128
g6
sVstaff
p1129
g10
ssS'3617'
p1130
(dp1131
Vneighborhood
p1132
g10
ssS'3619'
p1133
(dp1134
sS'571'
p1135
(dp1136
Vtime
p1137
g10
ssS'60'
p1138
(dp1139
sS'2195'
p1140
(dp1141
Vservice
p1142
g6
sVexcellent
p1143
g6
ssS'3168'
p1144
(dp1145
Vbagel
p1146
g10
sVcorner
p1147
g10
sVway
p1148
g10
ssS'2197'
p1149
(dp1150
Vneed
p1151
g6
sVgood
p1152
g6
sVsushi
p1153
g30
sVplace
p1154
g10
sVThey
p1155
g6
ssS'2198'
p1156
(dp1157
VFaan
p1158
g6
sVgood
p1159
g6
ssS'2199'
p1160
(dp1161
sS'3162'
p1162
(dp1163
Vtown
p1164
g6
ssS'2807'
p1165
(dp1166
Vplace
p1167
g10
ssS'2569'
p1168
(dp1169
Vreviews
p1170
g6
ssS'2406'
p1171
(dp1172
Vfritters
p1173
g30
ssS'1423'
p1174
(dp1175
Vhotpot
p1176
g6
sVcooking
p1177
g30
sVspecial
p1178
g6
sVrestaurant
p1179
g10
ssS'2207'
p1180
(dp1181
Vseated
p1182
g6
sVus
p1183
g6
ssS'3364'
p1184
(dp1185
Vspot
p1186
g10
ssS'1428'
p1187
(dp1188
g201
g6
sVwent
p1189
g6
sVgood
p1190
g6
sVit
p1191
g6
ssS'3366'
p1192
(dp1193
Vfood
p1194
g10
sVpasta
p1195
g10
ssS'1373'
p1196
(dp1197
sS'1584'
p1198
(dp1199
VBEST
p1200
g6
sVSHOW
p1201
g6
ssS'1038'
p1202
(dp1203
Vservice
p1204
g6
ssS'732'
p1205
(dp1206
Vburger
p1207
g10
sVgreat
p1208
g6
ssS'508'
p1209
(dp1210
VFrites
p1211
g6
ssS'739'
p1212
(dp1213
Vwaiter
p1214
g30
ssS'1030'
p1215
(dp1216
Vjob
p1217
g10
sVwaitresses
p1218
g6
sVfriendly
p1219
g6
ssS'2151'
p1220
(dp1221
Vrate
p1222
g6
ssS'2428'
p1223
(dp1224
sS'1358'
p1225
(dp1226
Vprice
p1227
g10
ssS'468'
p1228
(dp1229
Vneed
p1230
g6
sVkind
p1231
g10
sVsnobs
p1232
g6
ssS'2580'
p1233
(dp1234
Vservice
p1235
g30
ssS'1171'
p1236
(dp1237
sS'464'
p1238
(dp1239
Vdishes
p1240
g10
sVfood
p1241
g10
sVphenomenal
p1242
g6
sVambiance
p1243
g30
sVveal
p1244
g6
sVminimal
p1245
g6
ssS'1351'
p1246
(dp1247
Vwork
p1248
g6
ssS'2423'
p1249
(dp1250
g201
g6
sVlive
p1251
g6
sVopened
p1252
g6
ssS'402'
p1253
(dp1254
g201
g6
sVSpecial
p1255
g6
ssS'463'
p1256
(dp1257
sS'1169'
p1258
(dp1259
Vbills
p1260
g10
ssS'390'
p1261
(dp1262
Vask
p1263
g6
ssS'164'
p1264
(dp1265
sS'167'
p1266
(dp1267
Vstuff
p1268
g30
sVturn-over
p1269
g6
ssS'966'
p1270
(dp1271
Vquality
p1272
g10
ssS'2898'
p1273
(dp1274
Vportion
p1275
g10
ssS'783'
p1276
(dp1277
sS'969'
p1278
(dp1279
sS'3685'
p1280
(dp1281
Vmoney
p1282
g10
ssS'2109'
p1283
(dp1284
Vechoes
p1285
g10
sVservice
p1286
g30
sVacousitcs
p1287
g6
ssS'1102'
p1288
(dp1289
sS'1518'
p1290
(dp1291
Vplace
p1292
g10
ssS'2514'
p1293
(dp1294
sS'2516'
p1295
(dp1296
g201
g6
sVgo
p1297
g6
sVplace
p1298
g6
ssS'2100'
p1299
(dp1300
sS'1109'
p1301
(dp1302
Vpotatoes
p1303
g6
sVhand
p1304
g6
ssS'2730'
p1305
(dp1306
VJackel
p1307
g6
ssS'2635'
p1308
(dp1309
sS'2739'
p1310
(dp1311
sS'3533'
p1312
(dp1313
Vplace
p1314
g10
ssS'679'
p1315
(dp1316
sS'1816'
p1317
(dp1318
Vspot
p1319
g6
ssS'1811'
p1320
(dp1321
Vagenda
p1322
g10
ssS'2121'
p1323
(dp1324
VIndoor
p1325
g6
sVcozy
p1326
g6
ssS'875'
p1327
(dp1328
Vwe
p1329
g6
sVarrived
p1330
g6
sVempty
p1331
g6
sVrestaurant
p1332
g10
ssS'1818'
p1333
(dp1334
sS'2794'
p1335
(dp1336
sS'871'
p1337
(dp1338
Vit
p1339
g6
sVdeal
p1340
g6
ssS'2742'
p1341
(dp1342
Vmartini
p1343
g10
ssS'3181'
p1344
(dp1345
sS'3183'
p1346
(dp1347
sS'1245'
p1348
(dp1349
sS'637'
p1350
(dp1351
Vrooms
p1352
g30
ssS'1156'
p1353
(dp1354
VJimmy
p1355
g6
sVhand
p1356
g10
ssS'647'
p1357
(dp1358
Vfood
p1359
g10
ssS'897'
p1360
(dp1361
sS'899'
p1362
(dp1363
VFood
p1364
g6
ssS'646'
p1365
(dp1366
sS'1150'
p1367
(dp1368
VJimmy
p1369
g6
sVDominican
p1370
g6
ssS'2165'
p1371
(dp1372
Vbagel
p1373
g10
ssS'3545'
p1374
(dp1375
sS'1601'
p1376
(dp1377
Ventrees
p1378
g10
ssS'3224'
p1379
(dp1380
Veverything
p1381
g30
sVmenu
p1382
g10
ssS'1974'
p1383
(dp1384
Vit
p1385
g6
sVwa
p1386
g6
ssS'1605'
p1387
(dp1388
sS'355'
p1389
(dp1390
sS'353'
p1391
(dp1392
VMargarita
p1393
g6
ssS'352'
p1394
(dp1395
sS'47'
p1396
(dp1397
Vplace
p1398
g10
sVworth
p1399
g6
ssS'802'
p1400
(dp1401
VLobster
p1402
g30
sVOne
p1403
g6
ssS'1614'
p1404
(dp1405
Vcook
p1406
g10
sVaunt
p1407
g10
ssS'216'
p1408
(dp1409
Vtry
p1410
g6
ssS'214'
p1411
(dp1412
Vattentive
p1413
g6
sVWaitstaff
p1414
g6
ssS'1967'
p1415
(dp1416
sS'213'
p1417
(dp1418
Vwater
p1419
g6
sVmouth
p1420
g6
ssS'210'
p1421
(dp1422
sS'2847'
p1423
(dp1424
Vwaiter
p1425
g30
sVdessert
p1426
g10
sVBirthday
p1427
g10
sVsaw
p1428
g6
sVgift
p1429
g6
ssS'2844'
p1430
(dp1431
Vrestaurant
p1432
g10
ssS'2968'
p1433
(dp1434
sS'3323'
p1435
(dp1436
sS'3326'
p1437
(dp1438
sS'3043'
p1439
(dp1440
Vreasonably
p1441
g6
sVthey
p1442
g6
sVget
p1443
g6
ssS'41'
p1444
(dp1445
sS'3044'
p1446
(dp1447
sS'3046'
p1448
(dp1449
Vpost
p1450
g10
ssS'2323'
p1451
(dp1452
sS'2321'
p1453
(dp1454
Vplace
p1455
g10
ssS'2320'
p1456
(dp1457
Vslow
p1458
g6
sVService
p1459
g6
sVpeople
p1460
g10
ssS'1770'
p1461
(dp1462
Vsushi
p1463
g30
sVhad
p1464
g6
ssS'2325'
p1465
(dp1466
Vavailable
p1467
g6
sVdishes
p1468
g10
ssS'1778'
p1469
(dp1470
Vnothing
p1471
g10
sVatmosphere
p1472
g10
ssS'334'
p1473
(dp1474
Vfood
p1475
g10
sVwa
p1476
g6
ssS'1676'
p1477
(dp1478
sS'3488'
p1479
(dp1480
sS'1097'
p1481
(dp1482
Vcuisine
p1483
g10
sVspot
p1484
g10
ssS'1158'
p1485
(dp1486
sS'1093'
p1487
(dp1488
Vcity
p1489
g10
sVrestaurant
p1490
g10
ssS'1154'
p1491
(dp1492
sS'3482'
p1493
(dp1494
sS'671'
p1495
(dp1496
Vpot
p1497
g30
sVplatters
p1498
g6
ssS'3487'
p1499
(dp1500
sS'260'
p1501
(dp1502
Vdish
p1503
g30
ssS'3133'
p1504
(dp1505
Vphrase
p1506
g10
sVhot
p1507
g6
ssS'3647'
p1508
(dp1509
sS'2998'
p1510
(dp1511
Vfood
p1512
g10
sVplace
p1513
g10
sVgarden
p1514
g10
ssS'2553'
p1515
(dp1516
sS'3038'
p1517
(dp1518
VStaffs
p1519
g6
sVfriendly
p1520
g6
ssS'1977'
p1521
(dp1522
sS'1556'
p1523
(dp1524
sS'2991'
p1525
(dp1526
Vsteak
p1527
g30
sVfatty
p1528
g6
ssS'57'
p1529
(dp1530
sS'2492'
p1531
(dp1532
Vsandwhich
p1533
g10
ssS'3030'
p1534
(dp1535
sS'2995'
p1536
(dp1537
Vscallop
p1538
g30
sVrisotto-yum
p1539
g30
ssS'2390'
p1540
(dp1541
g201
g6
sVdish
p1542
g6
sVsum
p1543
g6
sVsure
p1544
g6
sVitem
p1545
g30
ssS'54'
p1546
(dp1547
VBrewery
p1548
g6
sVway
p1549
g10
ssS'1411'
p1550
(dp1551
sS'2252'
p1552
(dp1553
sS'1416'
p1554
(dp1555
Vwhats
p1556
g10
ssS'2399'
p1557
(dp1558
Vportions
p1559
g6
ssS'2779'
p1560
(dp1561
Vwe
p1562
g6
sVappetizers
p1563
g10
sVordered
p1564
g6
sVgave
p1565
g6
ssS'1320'
p1566
(dp1567
VNothing
p1568
g10
sVobvious
p1569
g6
ssS'2474'
p1570
(dp1571
Vfood
p1572
g10
sVstuff
p1573
g10
ssS'1326'
p1574
(dp1575
Vfood
p1576
g10
sVfresh
p1577
g6
sVtreated
p1578
g6
ssS'3003'
p1579
(dp1580
Vfish
p1581
g10
ssS'2471'
p1582
(dp1583
sS'1325'
p1584
(dp1585
Vgirlfriend
p1586
g10
sVrelaxing
p1587
g10
ssS'983'
p1588
(dp1589
Vlunch
p1590
g6
ssS'2772'
p1591
(dp1592
Vmenu
p1593
g10
ssS'2478'
p1594
(dp1595
Vdish
p1596
g30
ssS'2256'
p1597
(dp1598
sS'2785'
p1599
(dp1600
Vwarm
p1601
g6
sVstaff
p1602
g10
ssS'2780'
p1603
(dp1604
sS'2782'
p1605
(dp1606
Vaverage
p1607
g10
ssS'1851'
p1608
(dp1609
sS'1857'
p1610
(dp1611
Vdrink
p1612
g30
sVspace
p1613
g10
ssS'2172'
p1614
(dp1615
sS'918'
p1616
(dp1617
Vgo
p1618
g6
ssS'1399'
p1619
(dp1620
Vowner
p1621
g10
sVfood
p1622
g10
ssS'1398'
p1623
(dp1624
Vlunch
p1625
g6
sVit
p1626
g6
sVchoice
p1627
g10
ssS'1395'
p1628
(dp1629
Vmost
p1630
g6
ssS'1528'
p1631
(dp1632
Vfood
p1633
g10
ssS'913'
p1634
(dp1635
Vdecour
p1636
g6
sVhall
p1637
g30
sVrestaurant
p1638
g10
ssS'2259'
p1639
(dp1640
Vate
p1641
g6
ssS'1420'
p1642
(dp1643
sS'2258'
p1644
(dp1645
sS'2608'
p1646
(dp1647
sS'3078'
p1648
(dp1649
sS'1932'
p1650
(dp1651
Vrestaurant
p1652
g6
ssS'665'
p1653
(dp1654
Vrecommend
p1655
g6
ssS'3262'
p1656
(dp1657
V!!
p1658
g10
sVThey
p1659
g6
ssS'3266'
p1660
(dp1661
Vsimplicity
p1662
g10
sVKai
p1663
g6
sVsomeone
p1664
g30
sVplace
p1665
g6
sVelegance
p1666
g6
ssS'1939'
p1667
(dp1668
Vgem
p1669
g10
ssS'3467'
p1670
(dp1671
Vfood
p1672
g10
ssS'3464'
p1673
(dp1674
Vreading
p1675
g6
ssS'3463'
p1676
(dp1677
sS'1426'
p1678
(dp1679
g201
g6
sVis
p1680
g6
sVwa
p1681
g6
ssS'3506'
p1682
(dp1683
g201
g6
sVcuisine
p1684
g10
sVthought
p1685
g6
ssS'848'
p1686
(dp1687
sS'2672'
p1688
(dp1689
sS'3365'
p1690
(dp1691
VOpera
p1692
g6
sVeverything
p1693
g10
ssS'1417'
p1694
(dp1695
VLassi
p1696
g6
ssS'3511'
p1697
(dp1698
Vgentleman
p1699
g30
sVcame
p1700
g6
ssS'2928'
p1701
(dp1702
Vnothing
p1703
g6
sVProblem
p1704
g6
ssS'2564'
p1705
(dp1706
sS'3362'
p1707
(dp1708
Vis
p1709
g6
sVpart
p1710
g10
sVKenny
p1711
g10
sVfamily
p1712
g10
ssS'2472'
p1713
(dp1714
VMargaritas
p1715
g30
sVfocus
p1716
g10
ssS'3215'
p1717
(dp1718
VHaru
p1719
g6
sVdisgusting
p1720
g6
ssS'1633'
p1721
(dp1722
sS'1980'
p1723
(dp1724
sS'1638'
p1725
(dp1726
Vprices
p1727
g6
sVreasonable
p1728
g6
ssS'1639'
p1729
(dp1730
Vlist
p1731
g10
ssS'1733'
p1732
(dp1733
VDecor
p1734
g6
ssS'1735'
p1735
(dp1736
sS'2499'
p1737
(dp1738
sS'980'
p1739
(dp1740
sS'568'
p1741
(dp1742
Vtried
p1743
g6
sVhe
p1744
g6
ssS'755'
p1745
(dp1746
sS'560'
p1747
(dp1748
Vmenu
p1749
g10
sVdiverse
p1750
g6
ssS'562'
p1751
(dp1752
Vtable
p1753
g30
ssS'758'
p1754
(dp1755
Vfood
p1756
g10
ssS'564'
p1757
(dp1758
Vtable
p1759
g10
ssS'3071'
p1760
(dp1761
Vtable
p1762
g30
ssS'3072'
p1763
(dp1764
Vprompt
p1765
g6
sVService
p1766
g6
ssS'3073'
p1767
(dp1768
VFood
p1769
g6
ssS'1590'
p1770
(dp1771
Vtime
p1772
g30
ssS'3171'
p1773
(dp1774
sS'2957'
p1775
(dp1776
Vlarge
p1777
g6
sVsweet
p1778
g6
sVbill
p1779
g10
sVfood
p1780
g10
sVwaiters
p1781
g6
ssS'3177'
p1782
(dp1783
VWe
p1784
g6
sVate
p1785
g6
ssS'220'
p1786
(dp1787
Vwho
p1788
g6
sVwant
p1789
g6
sVRusse
p1790
g6
ssS'1024'
p1791
(dp1792
sS'1027'
p1793
(dp1794
Vsake
p1795
g10
sVbottle
p1796
g30
sVsashimi
p1797
g6
ssS'2210'
p1798
(dp1799
Vspicy
p1800
g10
sVtimes
p1801
g30
ssS'1020'
p1802
(dp1803
Vdepends
p1804
g6
sVreally
p1805
g6
ssS'3379'
p1806
(dp1807
VSquare
p1808
g6
sVplace
p1809
g10
ssS'2214'
p1810
(dp1811
sS'1186'
p1812
(dp1813
sS'1187'
p1814
(dp1815
Vis
p1816
g6
sVit
p1817
g6
ssS'2359'
p1818
(dp1819
Vbill
p1820
g10
sVsteep
p1821
g6
sVexperience
p1822
g10
ssS'722'
p1823
(dp1824
Vambience
p1825
g30
sVdark
p1826
g6
sVit
p1827
g6
ssS'723'
p1828
(dp1829
g201
g6
sVcame
p1830
g6
ssS'721'
p1831
(dp1832
Vit
p1833
g6
sVlook
p1834
g6
ssS'2350'
p1835
(dp1836
Vtuna
p1837
g6
ssS'1742'
p1838
(dp1839
Vlive
p1840
g6
ssS'151'
p1841
(dp1842
sS'1165'
p1843
(dp1844
Vit
p1845
g6
sVworth
p1846
g6
ssS'2438'
p1847
(dp1848
sS'1162'
p1849
(dp1850
Vstrict
p1851
g6
sVcombination
p1852
g10
ssS'1163'
p1853
(dp1854
Vservice
p1855
g6
ssS'1207'
p1856
(dp1857
Vtuna
p1858
g30
sVgari
p1859
g6
ssS'2437'
p1860
(dp1861
sS'608'
p1862
(dp1863
Vwalked
p1864
g6
sVwe
p1865
g6
sVit
p1866
g6
sVwa
p1867
g6
ssS'2435'
p1868
(dp1869
g201
g6
sVrecommend
p1870
g6
ssS'959'
p1871
(dp1872
Vatmosphere
p1873
g10
sVfriendly
p1874
g6
sVservice
p1875
g6
ssS'2002'
p1876
(dp1877
sS'950'
p1878
(dp1879
sS'3107'
p1880
(dp1881
sS'42'
p1882
(dp1883
VHEARTLAND
p1884
g6
ssS'3103'
p1885
(dp1886
VUsha
p1887
g10
sVmanhattan
p1888
g6
ssS'1447'
p1889
(dp1890
Vthirsty
p1891
g6
sVHe
p1892
g6
ssS'1299'
p1893
(dp1894
sS'639'
p1895
(dp1896
sS'1119'
p1897
(dp1898
Vmenu
p1899
g10
sVwhat
p1900
g6
sVmade
p1901
g6
sVplace
p1902
g10
sVspecial
p1903
g6
ssS'934'
p1904
(dp1905
Vmeat
p1906
g6
ssS'1297'
p1907
(dp1908
Vrude
p1909
g6
sVThey
p1910
g6
ssS'1566'
p1911
(dp1912
sS'1295'
p1913
(dp1914
Vservice
p1915
g30
ssS'1558'
p1916
(dp1917
Vdeal
p1918
g6
ssS'474'
p1919
(dp1920
sS'1782'
p1921
(dp1922
sS'484'
p1923
(dp1924
sS'482'
p1925
(dp1926
sS'3428'
p1927
(dp1928
Vbe
p1929
g6
ssS'1808'
p1930
(dp1931
Vtaste
p1932
g6
sVmouth
p1933
g10
sVit
p1934
g6
sVservice
p1935
g30
ssS'1366'
p1936
(dp1937
Vgrace
p1938
g10
sVdrinks
p1939
g6
ssS'470'
p1940
(dp1941
sS'2007'
p1942
(dp1943
sS'2004'
p1944
(dp1945
Vgo
p1946
g6
ssS'479'
p1947
(dp1948
Vworld
p1949
g30
sVsandwhiches
p1950
g6
ss.