(dp0
S'3088'
p1
(dp2
Vkamasutra
p3
(dp4
S'price'
p5
S'neutral'
p6
sssS'3258'
p7
(dp8
Vrestaurants
p9
(dp10
S'service'
p11
S'positive'
p12
sssS'3250'
p13
(dp14
Vliving
p15
(dp16
S'food'
p17
g6
sssS'3254'
p18
(dp19
Vfood
p20
(dp21
S'food'
p22
g12
sssS'3558'
p23
(dp24
Vdishes
p25
(dp26
S'service'
p27
g6
sssS'346'
p28
(dp29
Vis
p30
(dp31
S'food'
p32
g6
sS'atmosphere'
p33
g6
ssVplace
p34
(dp35
g33
g12
sssS'341'
p36
(dp37
Vseasoning
p38
(dp39
S'food'
p40
g12
ssVbland
p41
(dp42
g40
g6
ssVsushi
p43
(dp44
g40
S'negative'
p45
sssS'810'
p46
(dp47
sS'3494'
p48
(dp49
sS'817'
p50
(dp51
Vwaiter
p52
(dp53
S'service'
p54
g45
sssS'2853'
p55
(dp56
sS'1796'
p57
(dp58
Vguys
p59
(dp60
S'service'
p61
g6
sssS'1794'
p62
(dp63
Voverpriced
p64
(dp65
S'price'
p66
g6
sssS'1491'
p67
(dp68
Vsauce
p69
(dp70
S'food'
p71
g45
sS'ambiance'
p72
g45
ssVcrust
p73
(dp74
g72
g12
ssVdelicious
p75
(dp76
g71
g6
sg72
g6
sssS'1496'
p77
(dp78
sS'1395'
p79
(dp80
Vmost
p81
(dp82
S'food'
p83
g6
sssS'1701'
p84
(dp85
sS'1060'
p86
(dp87
Vgreat
p88
(dp89
S'food'
p90
g6
sS'service'
p91
g6
ssVSpreads
p92
(dp93
g90
g6
sssS'2314'
p94
(dp95
Vgreat
p96
(dp97
S'service'
p98
g6
ssVservice
p99
(dp100
g98
g6
sssS'2312'
p101
(dp102
Vgoing
p103
(dp104
S'service'
p105
g6
sssS'1669'
p106
(dp107
Vplace
p108
(dp109
S'atmosphere'
p110
g6
sssS'299'
p111
(dp112
Vbenedict
p113
(dp114
S'food'
p115
g45
sS'service'
p116
g45
ssVservice
p117
(dp118
g116
g6
sssS'295'
p119
(dp120
Vup
p121
(dp122
S'service'
p123
g6
sssS'292'
p124
(dp125
sS'1086'
p126
(dp127
sS'587'
p128
(dp129
sS'195'
p130
(dp131
Vweather
p132
(dp133
S'servicing'
p134
g6
sssS'196'
p135
(dp136
Vstaff
p137
(dp138
S'military_service'
p139
g12
sssS'190'
p140
(dp141
sS'192'
p142
(dp143
sS'3679'
p144
(dp145
Vplace
p146
(dp147
S'atmosphere'
p148
g12
sssS'3672'
p149
(dp150
Vstaff
p151
(dp152
S'military_service'
p153
g12
sssS'3149'
p154
(dp155
Vcame
p156
(dp157
S'food'
p158
g6
sssS'3677'
p159
(dp160
Vplate
p161
(dp162
S'service'
p163
g6
sssS'2989'
p164
(dp165
sS'2547'
p166
(dp167
VSpecials
p168
(dp169
S'food'
p170
g6
sssS'3663'
p171
(dp172
Vdessert
p173
(dp174
S'food'
p175
g12
sssS'2987'
p176
(dp177
Vfood
p178
(dp179
S'food'
p180
g12
sssS'3022'
p181
(dp182
Vlove
p183
(dp184
S'servicing'
p185
g6
sssS'3388'
p186
(dp187
sS'2268'
p188
(dp189
sS'2382'
p190
(dp191
Vtry
p192
(dp193
S'service'
p194
g6
ssVfetish
p195
(dp196
g194
g12
sssS'2387'
p197
(dp198
VSeveral
p199
(dp200
S'food'
p201
g6
ssVhad
p202
(dp203
g201
g6
sS'serve'
p204
g6
sssS'2389'
p205
(dp206
Vdish
p207
(dp208
S'service'
p209
g45
ssVfood
p210
(dp211
S'food'
p212
g45
sg209
g45
sssS'2263'
p213
(dp214
Vservice
p215
(dp216
S'service'
p217
g6
sssS'2261'
p218
(dp219
Vlist
p220
(dp221
S'price'
p222
g6
sssS'3581'
p223
(dp224
Vcheeseburgers
p225
(dp226
S'food'
p227
g6
sssS'3583'
p228
(dp229
Vfell
p230
(dp231
S'overhaul'
p232
g6
sssS'1231'
p233
(dp234
Vbagels
p235
(dp236
S'food'
p237
g12
sssS'1233'
p238
(dp239
sS'441'
p240
(dp241
Vservice
p242
(dp243
S'service'
p244
g6
sssS'2285'
p245
(dp246
Vfood
p247
(dp248
S'food'
p249
g6
sssS'2514'
p250
(dp251
sS'2516'
p252
(dp253
VI
p254
(dp255
S'food'
p256
g6
ssVgo
p257
(dp258
g256
g6
sS'service'
p259
g6
ssVplace
p260
(dp261
g256
g6
sS'atmosphere'
p262
g6
sg259
g6
sssS'902'
p263
(dp264
sS'900'
p265
(dp266
VInterior
p267
(dp268
S'ambiance'
p269
g6
ssVwas
p270
(dp271
g269
g6
sssS'906'
p272
(dp273
sS'1540'
p274
(dp275
sS'904'
p276
(dp277
Vgotten
p278
(dp279
S'service'
p280
g6
sssS'1536'
p281
(dp282
sS'1534'
p283
(dp284
sS'2169'
p285
(dp286
sS'644'
p287
(dp288
sS'3094'
p289
(dp290
sS'3095'
p291
(dp292
g254
(dp293
S'food'
p294
g6
ssVfan
p295
(dp296
g294
g6
sS'service'
p297
g6
sssS'649'
p298
(dp299
sS'1539'
p300
(dp301
sS'2614'
p302
(dp303
Vplace
p304
(dp305
S'atmosphere'
p306
g45
sssS'2611'
p307
(dp308
sS'2610'
p309
(dp310
Vtoppings
p311
(dp312
S'service'
p313
g6
sssS'1946'
p314
(dp315
VVillage
p316
(dp317
S'ambiance'
p318
g6
sssS'3266'
p319
(dp320
Vsimplicity
p321
(dp322
S'price'
p323
g12
ssVplace
p324
(dp325
g323
g6
sS'atmosphere'
p326
g6
ssVelegance
p327
(dp328
g323
g6
sssS'331'
p329
(dp330
Vfriend
p331
(dp332
S'service'
p333
g12
sssS'330'
p334
(dp335
sS'333'
p336
(dp337
VBoy
p338
(dp339
S'service'
p340
g6
ssVwas
p341
(dp342
S'ambiance'
p343
g6
sg340
g6
sssS'1908'
p344
(dp345
Vsmall
p346
(dp347
S'atmosphere'
p348
g6
sS'service'
p349
g6
ssVreservations
p350
(dp351
g349
g6
sssS'3296'
p352
(dp353
Vit
p354
(dp355
S'food'
p356
g6
ssVcrowded
p357
(dp358
g356
g6
sssS'1905'
p359
(dp360
sS'1902'
p361
(dp362
VSteak
p363
(dp364
S'food'
p365
g12
sssS'3450'
p366
(dp367
sS'3518'
p368
(dp369
VEw
p370
(dp371
S'service'
p372
g6
sssS'3457'
p373
(dp374
Vwalked
p375
(dp376
S'food'
p377
g6
sssS'3458'
p378
(dp379
sS'3510'
p380
(dp381
Vwas
p382
(dp383
S'ambiance'
p384
g6
ssVexperience
p385
(dp386
S'food'
p387
g6
sg384
g6
ssVrestaurant
p388
(dp389
g387
g6
sg384
g6
sS'service'
p390
g6
sssS'2686'
p391
(dp392
Vplace
p393
(dp394
S'atmosphere'
p395
g12
sS'service'
p396
g12
ssVservice
p397
(dp398
g396
g6
sssS'2246'
p399
(dp400
Vgo
p401
(dp402
S'service'
p403
g6
sssS'1993'
p404
(dp405
sS'1992'
p406
(dp407
sS'1627'
p408
(dp409
Vservice
p410
(dp411
S'service'
p412
g6
sssS'1997'
p413
(dp414
g254
(dp415
S'food'
p416
g6
ssVfelt
p417
(dp418
g416
g6
sS'service'
p419
g6
sssS'3200'
p420
(dp421
sS'1462'
p422
(dp423
Vdishes
p424
(dp425
S'service'
p426
g12
sssS'559'
p427
(dp428
sS'3638'
p429
(dp430
Vcheese
p431
(dp432
S'food'
p433
g6
ssVfigured
p434
(dp435
g433
g6
ssVPizza
p436
(dp437
g433
g6
ssVlunch
p438
(dp439
g433
g12
ssVpizza
p440
(dp441
g433
g45
sssS'747'
p442
(dp443
sS'555'
p444
(dp445
Vplace
p446
(dp447
S'atmosphere'
p448
g12
sssS'3634'
p449
(dp450
sS'3632'
p451
(dp452
sS'3633'
p453
(dp454
Vtreat
p455
(dp456
S'food'
p457
g6
sS'service'
p458
g6
ssVservice
p459
(dp460
g458
g6
sssS'3017'
p461
(dp462
g254
(dp463
S'food'
p464
g6
sS'service'
p465
g6
ssVgirl
p466
(dp467
g465
g45
ssVHUNGRY
p468
(dp469
g464
g6
sg465
g6
sssS'3063'
p470
(dp471
sS'2948'
p472
(dp473
sS'2945'
p474
(dp475
Vroom
p476
(dp477
S'military_service'
p478
g12
sssS'236'
p479
(dp480
Vmoney
p481
(dp482
S'price'
p483
g6
sssS'1053'
p484
(dp485
Vstuff
p486
(dp487
S'food'
p488
g6
sssS'2341'
p489
(dp490
sS'2226'
p491
(dp492
Vprice
p493
(dp494
S'monetary_value'
p495
g12
ssVreasonable
p496
(dp497
S'food'
p498
g6
sg495
g6
sssS'2224'
p499
(dp500
sS'3341'
p501
(dp502
Vwas
p503
(dp504
S'food'
p505
g6
sS'ambiance'
p506
g6
ssVit
p507
(dp508
g505
g6
sssS'1195'
p509
(dp510
Vprices
p511
(dp512
S'monetary_value'
p513
g6
ssVsushi
p514
(dp515
S'food'
p516
g45
sg513
g45
sssS'3344'
p517
(dp518
Vofficial
p519
(dp520
S'service'
p521
g12
ssVtimes
p522
(dp523
g521
g45
sssS'1693'
p524
(dp525
sS'1756'
p526
(dp527
sS'1699'
p528
(dp529
Vdumplings
p530
(dp531
S'food'
p532
g45
sssS'1177'
p533
(dp534
sS'147'
p535
(dp536
Vstyle
p537
(dp538
S'price'
p539
g12
ssVribs
p540
(dp541
S'food'
p542
S'neutral'
p543
sg539
g543
sssS'140'
p544
(dp545
sS'1170'
p546
(dp547
Vgo
p548
(dp549
S'service'
p550
g6
sssS'2701'
p551
(dp552
Vfood
p553
(dp554
S'food'
p555
g6
sS'service'
p556
g6
ssVgreat
p557
(dp558
g556
g6
ssVfantastic
p559
(dp560
g555
g6
sg556
g6
ssVService
p561
(dp562
g556
g6
sssS'611'
p563
(dp564
sS'617'
p565
(dp566
sS'1178'
p567
(dp568
sS'3708'
p569
(dp570
sS'1885'
p571
(dp572
sS'2856'
p573
(dp574
Vspace
p575
(dp576
S'ambiance'
p577
g12
sssS'1882'
p578
(dp579
sS'3704'
p580
(dp581
sS'1285'
p582
(dp583
g254
(dp584
S'food'
p585
g6
ssVlive
p586
(dp587
g585
g6
sssS'2088'
p588
(dp589
sS'2122'
p590
(dp591
Vhuge
p592
(dp593
S'food'
p594
g6
sS'atmosphere'
p595
g6
ssVsushi
p596
(dp597
g594
g45
sg595
g45
ssVsizes
p598
(dp599
g595
g45
sssS'949'
p600
(dp601
Vtea
p602
(dp603
S'food'
p604
g12
ssVwine
p605
(dp606
g604
g12
sssS'3117'
p607
(dp608
Vfood
p609
(dp610
S'food'
p611
g12
sssS'2083'
p612
(dp613
Vso-so
p614
(dp615
S'food'
p616
g6
ssVsum
p617
(dp618
g616
g6
sssS'944'
p619
(dp620
g254
(dp621
S'food'
p622
g6
ssVwent
p623
(dp624
g622
g6
sS'service'
p625
g6
sssS'945'
p626
(dp627
Vcafe
p628
(dp629
S'service'
p630
g12
ssVservice
p631
(dp632
g630
g6
sssS'1289'
p633
(dp634
sS'943'
p635
(dp636
sS'941'
p637
(dp638
Vservice
p639
(dp640
S'service'
p641
g6
ssVexcellent
p642
(dp643
S'food'
p644
g6
sg641
g6
sssS'2539'
p645
(dp646
Vspecial
p647
(dp648
S'food'
p649
g45
ssVselections
p650
(dp651
g649
g45
sS'service'
p652
g45
sssS'517'
p653
(dp654
Vpage
p655
(dp656
S'service'
p657
g12
sssS'1572'
p658
(dp659
Vfun
p660
(dp661
S'service'
p662
g6
sssS'687'
p663
(dp664
sS'2535'
p665
(dp666
sS'2712'
p667
(dp668
Vtimes
p669
(dp670
S'service'
p671
g45
sssS'2710'
p672
(dp673
sS'1192'
p674
(dp675
Vsushi
p676
(dp677
S'food'
p678
g12
sssS'1300'
p679
(dp680
sS'3103'
p681
(dp682
Vmanhattan
p683
(dp684
S'food'
p685
g6
sssS'2714'
p686
(dp687
Vmenu
p688
(dp689
S'food'
p690
g45
sssS'622'
p691
(dp692
Vadvice
p693
(dp694
S'atmosphere'
p695
g12
sS'price'
p696
g12
ssVplace
p697
(dp698
g695
g12
sssS'2652'
p699
(dp700
Vlights
p701
(dp702
S'atmosphere'
p703
g6
ssVputting
p704
(dp705
g703
g6
sS'serve'
p706
g6
sS'service'
p707
g6
ssVrestaurant
p708
(dp709
g703
g12
sg707
g12
sssS'2655'
p710
(dp711
sS'137'
p712
(dp713
Vplace
p714
(dp715
S'atmosphere'
p716
g12
ssVcrowded
p717
(dp718
S'food'
p719
g6
sg716
g6
sssS'490'
p720
(dp721
sS'3419'
p722
(dp723
Vcuisine
p724
(dp725
S'overhaul'
p726
g12
ssVis
p727
(dp728
S'food'
p729
g6
sg726
g6
sssS'1839'
p730
(dp731
VFood
p732
(dp733
S'food'
p734
g6
ssVgreat
p735
(dp736
g734
g6
sS'service'
p737
g6
sssS'29'
p738
(dp739
Vroom
p740
(dp741
S'military_service'
p742
g6
sssS'407'
p743
(dp744
Vsushi
p745
(dp746
S'food'
p747
g45
ssVseemed
p748
(dp749
g747
g6
sssS'2407'
p750
(dp751
Vreason
p752
(dp753
S'atmosphere'
p754
g6
sssS'2156'
p755
(dp756
sS'938'
p757
(dp758
sS'403'
p759
(dp760
Vaverage
p761
(dp762
S'food'
p763
g6
ssVit
p764
(dp765
g763
g6
ssVnight
p766
(dp767
g763
g45
sssS'2403'
p768
(dp769
sS'2400'
p770
(dp771
Vtofu
p772
(dp773
S'food'
p774
g6
sS'service'
p775
g6
ssVsalad
p776
(dp777
g774
g45
ssVbasic
p778
(dp779
g774
g6
sg775
g6
sssS'2153'
p780
(dp781
sS'930'
p782
(dp783
Vvodka
p784
(dp785
S'food'
p786
g12
ssVcocktail
p787
(dp788
g786
g12
sssS'937'
p789
(dp790
VPRICES
p791
(dp792
S'monetary_value'
p793
g6
sssS'936'
p794
(dp795
Vcame
p796
(dp797
S'food'
p798
g6
sssS'935'
p799
(dp800
sS'2409'
p801
(dp802
Vdelivery
p803
(dp804
S'service'
p805
g6
ssVheel
p806
(dp807
g805
g6
sssS'414'
p808
(dp809
Vfood
p810
(dp811
S'food'
p812
g12
sssS'1952'
p813
(dp814
Vfood
p815
(dp816
S'food'
p817
g12
ssVservice
p818
(dp819
g817
g6
sS'service'
p820
g6
ssVexcellent
p821
(dp822
g817
g6
sg820
g6
sssS'3567'
p823
(dp824
Vfritter
p825
(dp826
S'food'
p827
g6
sssS'3242'
p828
(dp829
sS'3247'
p830
(dp831
Vspinach
p832
(dp833
S'food'
p834
g45
sssS'3245'
p835
(dp836
Vbuns
p837
(dp838
S'food'
p839
g45
ssVgood
p840
(dp841
g839
g6
sS'price'
p842
g6
sssS'378'
p843
(dp844
Vfish
p845
(dp846
S'food'
p847
g12
sssS'827'
p848
(dp849
Vsurprise
p850
(dp851
S'food'
p852
g12
sS'service'
p853
g12
ssVIt
p854
(dp855
g852
g6
sssS'826'
p856
(dp857
sS'1063'
p858
(dp859
Vforgivable
p860
(dp861
S'food'
p862
g6
sssS'822'
p863
(dp864
Vreviews
p865
(dp866
S'service'
p867
g12
sssS'704'
p868
(dp869
Vprices
p870
(dp871
S'monetary_value'
p872
g6
ssVfabulous
p873
(dp874
S'food'
p875
g6
sg872
g6
ssVcheap
p876
(dp877
g875
g6
sg872
g6
ssVit
p878
(dp879
g875
g6
sg872
g6
sssS'705'
p880
(dp881
VGREAT
p882
(dp883
S'food'
p884
g6
sS'service'
p885
g6
ssVportions
p886
(dp887
g884
g6
sS'atmosphere'
p888
g6
sg885
g6
ssVfood
p889
(dp890
g884
g12
sg888
g12
sg885
g12
ssVcheap
p891
(dp892
g884
g6
sg885
g6
ssVIT
p893
(dp894
g884
g6
ssVit
p895
(dp896
g884
g6
sg885
g6
ssVNOT
p897
(dp898
g884
g6
sg888
g6
sg885
g6
ssVsmall
p899
(dp900
g884
g6
sg888
g6
sg885
g6
ssVmean
p901
(dp902
g884
g6
sg888
g6
sg885
g6
sssS'706'
p903
(dp904
sS'1483'
p905
(dp906
Vfriendlier
p907
(dp908
S'food'
p909
g6
sssS'1480'
p910
(dp911
sS'397'
p912
(dp913
Vroll
p914
(dp915
S'food'
p916
g12
sssS'1485'
p917
(dp918
VPizza
p919
(dp920
S'food'
p921
g6
sssS'394'
p922
(dp923
Vassortment
p924
(dp925
S'service'
p926
g12
ssVfish
p927
(dp928
S'food'
p929
g12
sg926
g12
sssS'3306'
p930
(dp931
sS'3303'
p932
(dp933
VBisque
p934
(dp935
S'food'
p936
g6
sssS'2309'
p937
(dp938
sS'928'
p939
(dp940
g254
(dp941
S'food'
p942
g6
ssVcare
p943
(dp944
g942
g6
sS'overhaul'
p945
g6
sssS'1710'
p946
(dp947
Vwaiter
p948
(dp949
S'service'
p950
g45
sssS'1717'
p951
(dp952
Vtake
p953
(dp954
S'serve'
p955
g6
sssS'1716'
p956
(dp957
VStrike
p958
(dp959
S'atmosphere'
p960
g6
sS'service'
p961
g6
ssVplace
p962
(dp963
g960
g12
sssS'1715'
p964
(dp965
sS'1718'
p966
(dp967
sS'2305'
p968
(dp969
sS'2798'
p970
(dp971
sS'1653'
p972
(dp973
sS'2289'
p974
(dp975
Vgood
p976
(dp977
S'price'
p978
g6
sS'service'
p979
g6
ssVservice
p980
(dp981
g979
g6
sssS'1139'
p982
(dp983
sS'3666'
p984
(dp985
sS'580'
p986
(dp987
Vconcluded
p988
(dp989
S'service'
p990
g6
sssS'3662'
p991
(dp992
Vdish
p993
(dp994
S'service'
p995
g6
ssVattentive
p996
(dp997
S'food'
p998
g6
sg995
g6
ssVservice
p999
(dp1000
g995
g6
sssS'2281'
p1001
(dp1002
sS'3668'
p1003
(dp1004
Vpresentation
p1005
(dp1006
S'service'
p1007
g12
sssS'588'
p1008
(dp1009
Vfood
p1010
(dp1011
S'food'
p1012
g12
ssVcool
p1013
(dp1014
g1012
g6
sS'service'
p1015
g6
ssVexperience
p1016
(dp1017
g1012
g12
ssVexcellent
p1018
(dp1019
g1012
g6
sssS'1633'
p1020
(dp1021
sS'2838'
p1022
(dp1023
sS'3159'
p1024
(dp1025
Vcoffee
p1026
(dp1027
S'food'
p1028
g12
ssVgood
p1029
(dp1030
g1028
g6
sS'price'
p1031
g6
sssS'2834'
p1032
(dp1033
sS'3107'
p1034
(dp1035
sS'2275'
p1036
(dp1037
Vhole-in-the-wall
p1038
(dp1039
S'atmosphere'
p1040
g45
sS'ambiance'
p1041
g45
ssVplace
p1042
(dp1043
g1040
g12
sssS'3019'
p1044
(dp1045
Vcouple
p1046
(dp1047
S'serve'
p1048
g12
ssVhusband
p1049
(dp1050
g1048
g12
sS'service'
p1051
g12
sssS'1430'
p1052
(dp1053
Vplace
p1054
(dp1055
S'atmosphere'
p1056
g12
sssS'418'
p1057
(dp1058
Vminutes
p1059
(dp1060
S'price'
p1061
g45
sssS'2574'
p1062
(dp1063
Vorganic
p1064
(dp1065
S'food'
p1066
g6
ssVIngredients
p1067
(dp1068
g1066
g6
sssS'3016'
p1069
(dp1070
Vmake
p1071
(dp1072
S'food'
p1073
g543
sS'price'
p1074
g543
ssVqualities
p1075
(dp1076
g1074
g6
sssS'2573'
p1077
(dp1078
sS'3014'
p1079
(dp1080
Ventered
p1081
(dp1082
S'serve'
p1083
g6
sS'service'
p1084
g6
ssVcall
p1085
(dp1086
g1084
g12
ssVfirst
p1087
(dp1088
g1084
g6
sssS'2571'
p1089
(dp1090
VAmbience
p1091
(dp1092
S'atmosphere'
p1093
g6
ssVcute
p1094
(dp1095
S'food'
p1096
g6
sg1093
g6
sssS'2378'
p1097
(dp1098
Vshort-order
p1099
(dp1100
S'food'
p1101
g45
sS'service'
p1102
g45
ssVservice
p1103
(dp1104
g1102
g6
sssS'2379'
p1105
(dp1106
Vlike
p1107
(dp1108
S'food'
p1109
g6
sssS'512'
p1110
(dp1111
Vrude
p1112
(dp1113
S'food'
p1114
g6
sssS'1003'
p1115
(dp1116
sS'1001'
p1117
(dp1118
Vplace
p1119
(dp1120
S'atmosphere'
p1121
g12
sssS'1349'
p1122
(dp1123
Vevening
p1124
(dp1125
S'service'
p1126
g6
ssVfriends
p1127
(dp1128
g1126
g6
sssS'3590'
p1129
(dp1130
sS'2590'
p1131
(dp1132
sS'3595'
p1133
(dp1134
sS'629'
p1135
(dp1136
sS'2051'
p1137
(dp1138
Vname
p1139
(dp1140
S'service'
p1141
g12
sssS'974'
p1142
(dp1143
Vplace
p1144
(dp1145
S'atmosphere'
p1146
g45
sS'service'
p1147
g45
ssVcraving
p1148
(dp1149
g1146
g45
sg1147
g45
ssVtimes
p1150
(dp1151
g1147
g45
sssS'971'
p1152
(dp1153
Vchicken
p1154
(dp1155
S'food'
p1156
g6
sssS'970'
p1157
(dp1158
sS'3696'
p1159
(dp1160
sS'182'
p1161
(dp1162
sS'180'
p1163
(dp1164
Vside
p1165
(dp1166
S'food'
p1167
g12
sssS'3089'
p1168
(dp1169
Vfan
p1170
(dp1171
S'service'
p1172
g45
sssS'1507'
p1173
(dp1174
Vstay
p1175
(dp1176
S'service'
p1177
g6
sssS'650'
p1178
(dp1179
Vis
p1180
(dp1181
S'food'
p1182
g6
sssS'185'
p1183
(dp1184
Vfood
p1185
(dp1186
S'food'
p1187
g6
sS'service'
p1188
g6
ssVdo
p1189
(dp1190
g1188
g6
ssVspicy
p1191
(dp1192
g1187
g12
sg1188
g12
sssS'1508'
p1193
(dp1194
Vservice
p1195
(dp1196
S'service'
p1197
g6
sssS'2114'
p1198
(dp1199
sS'2116'
p1200
(dp1201
Vrolls
p1202
(dp1203
S'food'
p1204
g45
sssS'659'
p1205
(dp1206
sS'2623'
p1207
(dp1208
Vplace
p1209
(dp1210
S'atmosphere'
p1211
g12
sssS'1123'
p1212
(dp1213
Vnight
p1214
(dp1215
S'food'
p1216
g6
sS'service'
p1217
g6
ssVrolls
p1218
(dp1219
g1216
g6
sg1217
g6
ssVkitchen
p1220
(dp1221
g1217
g45
sssS'2624'
p1222
(dp1223
g254
(dp1224
S'food'
p1225
g6
ssVthought
p1226
(dp1227
g1225
g6
ssVplace
p1228
(dp1229
g1225
g12
sS'atmosphere'
p1230
g12
ssVoverrated
p1231
(dp1232
g1225
g6
sg1230
g6
sssS'3526'
p1233
(dp1234
Vgo
p1235
(dp1236
S'service'
p1237
g6
sssS'3520'
p1238
(dp1239
sS'3087'
p1240
(dp1241
Vdrinks
p1242
(dp1243
S'food'
p1244
g45
sssS'1917'
p1245
(dp1246
Vfood
p1247
(dp1248
S'food'
p1249
g12
ssVgood
p1250
(dp1251
g1249
g6
sS'price'
p1252
g6
sssS'862'
p1253
(dp1254
Vsimple
p1255
(dp1256
S'service'
p1257
g6
ssVdecor
p1258
(dp1259
g1257
g45
sssS'867'
p1260
(dp1261
sS'2129'
p1262
(dp1263
sS'2699'
p1264
(dp1265
sS'2696'
p1266
(dp1267
Vmenu
p1268
(dp1269
S'food'
p1270
g6
ssVtasting
p1271
(dp1272
g1270
g6
sS'service'
p1273
g6
sssS'2029'
p1274
(dp1275
Vproblem
p1276
(dp1277
S'atmosphere'
p1278
g45
sssS'885'
p1279
(dp1280
Vfood
p1281
(dp1282
S'food'
p1283
g12
sS'atmosphere'
p1284
g12
ssVplace
p1285
(dp1286
g1284
g12
ssVhorrible
p1287
(dp1288
g1283
g6
sg1284
g6
sssS'888'
p1289
(dp1290
Vasked
p1291
(dp1292
S'food'
p1293
g6
ssVone
p1294
(dp1295
g1293
g45
sssS'278'
p1296
(dp1297
sS'279'
p1298
(dp1299
VColonies
p1300
(dp1301
S'food'
p1302
g45
sS'atmosphere'
p1303
g45
sS'ambiance'
p1304
g45
ssVit
p1305
(dp1306
g1302
g6
sg1303
g6
ssVway
p1307
(dp1308
g1303
g12
sssS'3233'
p1309
(dp1310
sS'1966'
p1311
(dp1312
Vplace
p1313
(dp1314
S'atmosphere'
p1315
g12
sssS'188'
p1316
(dp1317
Vpart
p1318
(dp1319
S'service'
p1320
g12
ssVservice
p1321
(dp1322
g1320
g6
sssS'1960'
p1323
(dp1324
sS'1613'
p1325
(dp1326
sS'1610'
p1327
(dp1328
Vpizza
p1329
(dp1330
S'food'
p1331
g45
sssS'328'
p1332
(dp1333
Vgreat
p1334
(dp1335
S'food'
p1336
g6
sS'atmosphere'
p1337
g6
sS'service'
p1338
g6
ssg254
(dp1339
g1336
g6
sg1337
g6
sg1338
g6
ssVit
p1340
(dp1341
g1336
g6
sg1337
g6
sg1338
g6
ssVended
p1342
(dp1343
g1336
g6
sg1338
g6
ssVplace
p1344
(dp1345
g1336
g12
sg1337
g12
sg1338
g12
ssVglad
p1346
(dp1347
g1336
g6
sg1337
g6
sg1338
g6
sssS'562'
p1348
(dp1349
Vtable
p1350
(dp1351
S'food'
p1352
g45
sssS'774'
p1353
(dp1354
sS'777'
p1355
(dp1356
Vcriticize
p1357
(dp1358
S'food'
p1359
g543
sssS'2877'
p1360
(dp1361
Vkids
p1362
(dp1363
S'service'
p1364
g12
ssVlove
p1365
(dp1366
S'servicing'
p1367
g6
sg1364
g6
sssS'2876'
p1368
(dp1369
Vexperience
p1370
(dp1371
S'food'
p1372
g12
ssVtimes
p1373
(dp1374
g1372
g6
sS'service'
p1375
g6
sssS'206'
p1376
(dp1377
Vfood
p1378
(dp1379
S'food'
p1380
g12
ssVis
p1381
(dp1382
g1380
g6
ssVits
p1383
(dp1384
g1380
g6
ssVdelicious
p1385
(dp1386
g1380
g6
sssS'3625'
p1387
(dp1388
sS'3355'
p1389
(dp1390
Vcake
p1391
(dp1392
S'food'
p1393
g12
ssg254
(dp1394
g1393
g6
ssVthought
p1395
(dp1396
g1393
g6
sssS'2979'
p1397
(dp1398
Vfood
p1399
(dp1400
S'food'
p1401
g12
sssS'72'
p1402
(dp1403
sS'71'
p1404
(dp1405
Varea
p1406
(dp1407
S'food'
p1408
g12
sS'service'
p1409
g12
ssVMADE
p1410
(dp1411
g1409
g6
ssVplace
p1412
(dp1413
g1408
g12
sS'atmosphere'
p1414
g12
sg1409
g12
ssVservice
p1415
(dp1416
g1408
g45
sg1409
g45
ssVPizza
p1417
(dp1418
g1408
g12
sg1409
g12
sssS'2546'
p1419
(dp1420
sS'1047'
p1421
(dp1422
Vfind
p1423
(dp1424
S'service'
p1425
g6
sssS'2235'
p1426
(dp1427
Vone
p1428
(dp1429
S'food'
p1430
g45
sssS'1683'
p1431
(dp1432
Vfood
p1433
(dp1434
S'food'
p1435
g12
sS'service'
p1436
g12
ssVservice
p1437
(dp1438
g1436
g6
sssS'1687'
p1439
(dp1440
sS'1766'
p1441
(dp1442
VFood
p1443
(dp1444
S'food'
p1445
g6
sssS'1146'
p1446
(dp1447
sS'3289'
p1448
(dp1449
sS'1148'
p1450
(dp1451
sS'3479'
p1452
(dp1453
sS'3078'
p1454
(dp1455
sS'2096'
p1456
(dp1457
Vplaces
p1458
(dp1459
S'atmosphere'
p1460
g12
sssS'2093'
p1461
(dp1462
Vgo
p1463
(dp1464
S'service'
p1465
g6
sssS'3652'
p1466
(dp1467
Vcosts
p1468
(dp1469
S'monetary_value'
p1470
g12
sssS'2526'
p1471
(dp1472
Vprices
p1473
(dp1474
S'serve'
p1475
g6
sS'monetary_value'
p1476
g6
sS'service'
p1477
g6
ssVtake
p1478
(dp1479
g1475
g6
sg1477
g6
ssVDeliveries
p1480
(dp1481
g1477
g6
sssS'1302'
p1482
(dp1483
Vprices
p1484
(dp1485
S'monetary_value'
p1486
g45
ssVget
p1487
(dp1488
S'serve'
p1489
g6
sg1486
g6
sssS'2488'
p1490
(dp1491
sS'695'
p1492
(dp1493
VCa
p1494
(dp1495
S'ambiance'
p1496
g6
ssVwait
p1497
(dp1498
g1496
g6
sS'service'
p1499
g6
sssS'3120'
p1500
(dp1501
Vfood
p1502
(dp1503
S'food'
p1504
g12
sssS'543'
p1505
(dp1506
sS'527'
p1507
(dp1508
Vcouple
p1509
(dp1510
S'food'
p1511
g12
sS'serve'
p1512
g12
ssVdrinks
p1513
(dp1514
g1511
g12
sssS'547'
p1515
(dp1516
sS'544'
p1517
(dp1518
Vspot
p1519
(dp1520
S'food'
p1521
g6
sS'service'
p1522
g6
ssVIt
p1523
(dp1524
g1521
g6
sssS'1467'
p1525
(dp1526
Vtimes
p1527
(dp1528
S'service'
p1529
g12
sssS'1466'
p1530
(dp1531
Vconversation
p1532
(dp1533
S'food'
p1534
g12
sS'price'
p1535
g12
sS'service'
p1536
g12
ssVattorney
p1537
(dp1538
g1536
g12
ssVside
p1539
(dp1540
g1534
g12
sg1536
g12
sssS'2241'
p1541
(dp1542
sS'2243'
p1543
(dp1544
Vprices
p1545
(dp1546
S'food'
p1547
g6
sS'monetary_value'
p1548
g6
sS'service'
p1549
g6
ssVnear
p1550
(dp1551
g1547
g6
sg1549
g6
ssVCollege
p1552
(dp1553
g1549
g6
ssVlocation
p1554
(dp1555
g1549
g12
ssVreasonable
p1556
(dp1557
g1547
g6
sg1548
g6
sg1549
g6
ssVgo
p1558
(dp1559
g1549
g6
sssS'997'
p1560
(dp1561
sS'2467'
p1562
(dp1563
sS'2461'
p1564
(dp1565
VCUISINE
p1566
(dp1567
S'overhaul'
p1568
g6
sssS'992'
p1569
(dp1570
Vkind
p1571
(dp1572
S'food'
p1573
g12
sssS'2704'
p1574
(dp1575
sS'2468'
p1576
(dp1577
sS'126'
p1578
(dp1579
VSeating
p1580
(dp1581
S'service'
p1582
g6
sssS'1020'
p1583
(dp1584
Vdepends
p1585
(dp1586
S'food'
p1587
g6
ssVreally
p1588
(dp1589
g1587
g6
sssS'3379'
p1590
(dp1591
VSquare
p1592
(dp1593
S'atmosphere'
p1594
g6
sS'ambiance'
p1595
g6
ssVplace
p1596
(dp1597
g1594
g12
sssS'2068'
p1598
(dp1599
sS'2146'
p1600
(dp1601
Vfood
p1602
(dp1603
S'food'
p1604
g12
ssVatmosphere
p1605
(dp1606
g1604
g12
sS'atmosphere'
p1607
g12
ssVmakes
p1608
(dp1609
g1604
g6
sg1607
g6
sS'military_service'
p1610
g6
ssVstaff
p1611
(dp1612
g1604
g12
sg1607
g12
sg1610
g12
sssS'2145'
p1613
(dp1614
sS'411'
p1615
(dp1616
Vbrought
p1617
(dp1618
S'service'
p1619
g6
ssVwas
p1620
(dp1621
S'ambiance'
p1622
g6
sg1619
g6
sssS'413'
p1623
(dp1624
Vcheck
p1625
(dp1626
S'serve'
p1627
g543
sssS'2060'
p1628
(dp1629
sS'922'
p1630
(dp1631
Vservice
p1632
(dp1633
S'service'
p1634
g6
sssS'2796'
p1635
(dp1636
Vfood
p1637
(dp1638
S'food'
p1639
g12
sssS'419'
p1640
(dp1641
sS'2066'
p1642
(dp1643
sS'313'
p1644
(dp1645
sS'317'
p1646
(dp1647
sS'314'
p1648
(dp1649
Vquality
p1650
(dp1651
S'price'
p1652
g12
sssS'1920'
p1653
(dp1654
Varrived
p1655
(dp1656
S'food'
p1657
g6
sssS'1921'
p1658
(dp1659
Vfood
p1660
(dp1661
S'food'
p1662
g12
ssVsurprise
p1663
(dp1664
g1662
g6
sS'service'
p1665
g6
sssS'448'
p1666
(dp1667
Vpies
p1668
(dp1669
S'food'
p1670
g6
ssVget
p1671
(dp1672
g1670
g6
sS'serve'
p1673
g6
sssS'3272'
p1674
(dp1675
Vcollection
p1676
(dp1677
S'service'
p1678
g12
sssS'832'
p1679
(dp1680
sS'3473'
p1681
(dp1682
sS'1245'
p1683
(dp1684
sS'3570'
p1685
(dp1686
Vpeople
p1687
(dp1688
S'military_service'
p1689
g6
sssS'2359'
p1690
(dp1691
Vbill
p1692
(dp1693
S'food'
p1694
g12
sS'service'
p1695
g12
ssVsteep
p1696
(dp1697
g1694
g6
sS'ambiance'
p1698
g6
sg1695
g6
ssVexperience
p1699
(dp1700
g1694
g12
sssS'722'
p1701
(dp1702
Vambience
p1703
(dp1704
S'atmosphere'
p1705
g45
ssVdark
p1706
(dp1707
S'food'
p1708
g6
sg1705
g6
ssVit
p1709
(dp1710
g1708
g6
sg1705
g6
sssS'363'
p1711
(dp1712
Vfine
p1713
(dp1714
S'price'
p1715
g6
ssVlist
p1716
(dp1717
g1715
g12
sssS'2937'
p1718
(dp1719
Vsqueeze
p1720
(dp1721
S'service'
p1722
g543
ssVtreat
p1723
(dp1724
S'food'
p1725
g6
sg1722
g6
sssS'2933'
p1726
(dp1727
sS'2931'
p1728
(dp1729
Vfood
p1730
(dp1731
S'food'
p1732
g12
ssg254
(dp1733
g1732
g6
sS'price'
p1734
g6
ssVgood
p1735
(dp1736
g1732
g6
sg1734
g6
ssVleft
p1737
(dp1738
g1732
g6
sg1734
g6
sS'ambiance'
p1739
g6
sssS'382'
p1740
(dp1741
Vcalamari
p1742
(dp1743
S'food'
p1744
g45
ssVnoodles
p1745
(dp1746
g1744
g6
ssVyummy
p1747
(dp1748
g1744
g6
ssVcomes
p1749
(dp1750
g1744
g6
sssS'3313'
p1751
(dp1752
Vwent
p1753
(dp1754
S'service'
p1755
g6
sssS'444'
p1756
(dp1757
VPatsy
p1758
(dp1759
S'service'
p1760
g6
sssS'784'
p1761
(dp1762
Vplace
p1763
(dp1764
S'atmosphere'
p1765
g12
sssS'785'
p1766
(dp1767
Vfeel
p1768
(dp1769
S'atmosphere'
p1770
g6
ssVzen
p1771
(dp1772
g1770
g6
sS'service'
p1773
g6
sssS'2065'
p1774
(dp1775
Vgo
p1776
(dp1777
S'service'
p1778
g6
sssS'1643'
p1779
(dp1780
sS'1642'
p1781
(dp1782
Vhad
p1783
(dp1784
S'serve'
p1785
g6
sssS'1649'
p1786
(dp1787
Vsushi
p1788
(dp1789
S'food'
p1790
g12
sssS'2692'
p1791
(dp1792
Vattentive
p1793
(dp1794
S'food'
p1795
g6
sS'military_service'
p1796
g6
ssVstaff
p1797
(dp1798
g1796
g12
sssS'3617'
p1799
(dp1800
Vneighborhood
p1801
(dp1802
S'ambiance'
p1803
g12
sssS'3619'
p1804
(dp1805
sS'571'
p1806
(dp1807
Vtime
p1808
(dp1809
S'service'
p1810
g12
sssS'60'
p1811
(dp1812
sS'2195'
p1813
(dp1814
Vservice
p1815
(dp1816
S'service'
p1817
g6
ssVexcellent
p1818
(dp1819
S'food'
p1820
g6
sg1817
g6
sssS'3168'
p1821
(dp1822
Vbagel
p1823
(dp1824
S'food'
p1825
g12
sS'service'
p1826
g12
ssVcorner
p1827
(dp1828
g1826
g12
ssVway
p1829
(dp1830
g1825
g12
sS'atmosphere'
p1831
g12
sg1826
g12
sssS'2197'
p1832
(dp1833
Vneed
p1834
(dp1835
S'food'
p1836
g6
sS'price'
p1837
g6
sS'atmosphere'
p1838
g6
ssVgood
p1839
(dp1840
g1836
g6
sg1837
g6
ssVplace
p1841
(dp1842
g1836
g12
sg1837
g12
sg1838
g12
ssVsushi
p1843
(dp1844
g1836
g45
sssS'2198'
p1845
(dp1846
Vgood
p1847
(dp1848
S'price'
p1849
g6
sssS'2199'
p1850
(dp1851
sS'3162'
p1852
(dp1853
Vtown
p1854
(dp1855
S'ambiance'
p1856
g6
sssS'2807'
p1857
(dp1858
Vplace
p1859
(dp1860
S'atmosphere'
p1861
g12
sssS'2569'
p1862
(dp1863
Vreviews
p1864
(dp1865
S'service'
p1866
g6
sssS'2406'
p1867
(dp1868
Vfritters
p1869
(dp1870
S'food'
p1871
g45
sssS'1423'
p1872
(dp1873
Vhotpot
p1874
(dp1875
S'food'
p1876
g6
sS'overhaul'
p1877
g6
sS'service'
p1878
g6
ssVcooking
p1879
(dp1880
g1876
g45
sg1877
g45
ssVspecial
p1881
(dp1882
g1876
g6
ssVrestaurant
p1883
(dp1884
g1876
g12
sg1877
g12
sg1878
g12
sssS'2207'
p1885
(dp1886
Vseated
p1887
(dp1888
S'food'
p1889
g6
sS'ambiance'
p1890
g6
ssVus
p1891
(dp1892
g1890
g6
sssS'3364'
p1893
(dp1894
Vspot
p1895
(dp1896
S'service'
p1897
g12
sssS'1428'
p1898
(dp1899
g254
(dp1900
S'food'
p1901
g6
sS'price'
p1902
g6
ssVwent
p1903
(dp1904
g1901
g6
sg1902
g6
sS'service'
p1905
g6
ssVgood
p1906
(dp1907
g1901
g6
sg1902
g6
ssVit
p1908
(dp1909
g1901
g6
sssS'3366'
p1910
(dp1911
Vfood
p1912
(dp1913
S'food'
p1914
g12
ssVpastas
p1915
(dp1916
g1914
g12
sssS'1373'
p1917
(dp1918
sS'1584'
p1919
(dp1920
VSHOW
p1921
(dp1922
S'service'
p1923
g6
sssS'1038'
p1924
(dp1925
Vservice
p1926
(dp1927
S'service'
p1928
g6
sssS'732'
p1929
(dp1930
Vburger
p1931
(dp1932
S'food'
p1933
g12
ssVgreat
p1934
(dp1935
g1933
g6
sS'service'
p1936
g6
sssS'508'
p1937
(dp1938
sS'739'
p1939
(dp1940
Vwaiter
p1941
(dp1942
S'service'
p1943
g45
ssVfound
p1944
(dp1945
S'price'
p1946
g543
sg1943
g543
sssS'1030'
p1947
(dp1948
Vjob
p1949
(dp1950
S'service'
p1951
g12
ssVwaitresses
p1952
(dp1953
g1951
g6
ssVfriendly
p1954
(dp1955
S'military_service'
p1956
g6
sg1951
g6
sssS'2151'
p1957
(dp1958
Vrate
p1959
(dp1960
S'price'
p1961
g6
sssS'2428'
p1962
(dp1963
sS'1358'
p1964
(dp1965
Vprice
p1966
(dp1967
S'monetary_value'
p1968
g12
sssS'468'
p1969
(dp1970
Vneed
p1971
(dp1972
S'atmosphere'
p1973
g6
sS'service'
p1974
g6
ssVsnobs
p1975
(dp1976
g1974
g6
ssVkind
p1977
(dp1978
S'food'
p1979
g12
sg1973
g12
sg1974
g12
sssS'2580'
p1980
(dp1981
sS'1171'
p1982
(dp1983
sS'464'
p1984
(dp1985
Vdishes
p1986
(dp1987
S'food'
p1988
g12
sS'atmosphere'
p1989
g12
sS'service'
p1990
g12
ssVfood
p1991
(dp1992
g1988
g12
ssVphenomenal
p1993
(dp1994
g1988
g6
ssVambiance
p1995
(dp1996
g1988
g45
sg1989
g45
ssVveal
p1997
(dp1998
g1988
g6
sg1989
g6
sg1990
g6
ssVminimal
p1999
(dp2000
g1988
g6
sg1989
g6
sssS'1351'
p2001
(dp2002
Vwork
p2003
(dp2004
S'service'
p2005
g6
sssS'2423'
p2006
(dp2007
g254
(dp2008
S'food'
p2009
g6
ssVlive
p2010
(dp2011
g2009
g6
ssVopened
p2012
(dp2013
g2009
g6
sssS'402'
p2014
(dp2015
g254
(dp2016
S'food'
p2017
g6
ssVSpecial
p2018
(dp2019
g2017
g6
sssS'463'
p2020
(dp2021
sS'608'
p2022
(dp2023
Vwas
p2024
(dp2025
S'food'
p2026
g6
sS'ambiance'
p2027
g6
ssVit
p2028
(dp2029
g2026
g6
ssVwalked
p2030
(dp2031
g2026
g6
sssS'164'
p2032
(dp2033
sS'167'
p2034
(dp2035
Vstuff
p2036
(dp2037
S'food'
p2038
g45
sssS'966'
p2039
(dp2040
Vquality
p2041
(dp2042
S'price'
p2043
g12
sssS'2898'
p2044
(dp2045
Vportion
p2046
(dp2047
S'atmosphere'
p2048
g12
sssS'783'
p2049
(dp2050
sS'969'
p2051
(dp2052
sS'3685'
p2053
(dp2054
Vmoney
p2055
(dp2056
S'price'
p2057
g12
sssS'2109'
p2058
(dp2059
Vechoes
p2060
(dp2061
S'service'
p2062
g12
ssVservice
p2063
(dp2064
g2062
g45
sssS'1102'
p2065
(dp2066
sS'1518'
p2067
(dp2068
Vplace
p2069
(dp2070
S'atmosphere'
p2071
g12
sssS'2103'
p2072
(dp2073
Vbrought
p2074
(dp2075
S'food'
p2076
g6
sS'service'
p2077
g6
ssVfresh
p2078
(dp2079
g2076
g6
sssS'1517'
p2080
(dp2081
Vplace
p2082
(dp2083
S'atmosphere'
p2084
g12
sssS'2100'
p2085
(dp2086
sS'1109'
p2087
(dp2088
Vpotatoes
p2089
(dp2090
S'food'
p2091
g6
ssVhands
p2092
(dp2093
g2091
g6
sS'service'
p2094
g6
sssS'2730'
p2095
(dp2096
sS'2635'
p2097
(dp2098
sS'2739'
p2099
(dp2100
sS'3533'
p2101
(dp2102
Vplace
p2103
(dp2104
S'atmosphere'
p2105
g12
sssS'1158'
p2106
(dp2107
sS'1816'
p2108
(dp2109
Vspot
p2110
(dp2111
S'service'
p2112
g6
sssS'1811'
p2113
(dp2114
Vagenda
p2115
(dp2116
S'food'
p2117
g12
sssS'2121'
p2118
(dp2119
VIndoor
p2120
(dp2121
S'food'
p2122
g6
ssVcozy
p2123
(dp2124
g2122
g6
sS'service'
p2125
g6
sssS'2437'
p2126
(dp2127
sS'875'
p2128
(dp2129
Varrived
p2130
(dp2131
S'food'
p2132
g6
ssVempty
p2133
(dp2134
g2132
g6
sS'service'
p2135
g6
ssVrestaurant
p2136
(dp2137
g2132
g12
sg2135
g12
sssS'1818'
p2138
(dp2139
sS'2794'
p2140
(dp2141
sS'871'
p2142
(dp2143
Vit
p2144
(dp2145
S'food'
p2146
g6
ssVdeal
p2147
(dp2148
g2146
g6
sS'service'
p2149
g6
sssS'2742'
p2150
(dp2151
Vmartini
p2152
(dp2153
S'food'
p2154
g12
sssS'3181'
p2155
(dp2156
sS'3183'
p2157
(dp2158
sS'2748'
p2159
(dp2160
Vthing
p2161
(dp2162
S'food'
p2163
g6
sS'service'
p2164
g6
ssVservice
p2165
(dp2166
g2164
g6
sssS'3482'
p2167
(dp2168
sS'647'
p2169
(dp2170
Vfood
p2171
(dp2172
S'food'
p2173
g12
sssS'897'
p2174
(dp2175
sS'899'
p2176
(dp2177
VFood
p2178
(dp2179
S'food'
p2180
g6
sssS'646'
p2181
(dp2182
sS'671'
p2183
(dp2184
Vpot
p2185
(dp2186
S'service'
p2187
g45
ssVplatters
p2188
(dp2189
g2187
g6
sssS'2165'
p2190
(dp2191
Vbagel
p2192
(dp2193
S'food'
p2194
g12
sssS'3545'
p2195
(dp2196
sS'1601'
p2197
(dp2198
Ventrees
p2199
(dp2200
S'food'
p2201
g12
sssS'3224'
p2202
(dp2203
Vmenu
p2204
(dp2205
S'food'
p2206
g12
sssS'1974'
p2207
(dp2208
Vwas
p2209
(dp2210
S'food'
p2211
g6
sS'ambiance'
p2212
g6
ssVit
p2213
(dp2214
g2211
g6
sssS'1605'
p2215
(dp2216
sS'355'
p2217
(dp2218
sS'353'
p2219
(dp2220
VMargarita
p2221
(dp2222
S'food'
p2223
g6
sssS'352'
p2224
(dp2225
sS'950'
p2226
(dp2227
sS'802'
p2228
(dp2229
VLobster
p2230
(dp2231
S'food'
p2232
g45
ssVOne
p2233
(dp2234
g2232
g6
sssS'1614'
p2235
(dp2236
Vcook
p2237
(dp2238
S'service'
p2239
g12
ssVaunt
p2240
(dp2241
g2239
g12
sssS'216'
p2242
(dp2243
Vtry
p2244
(dp2245
S'service'
p2246
g6
sssS'214'
p2247
(dp2248
Vattentive
p2249
(dp2250
S'food'
p2251
g6
sssS'1967'
p2252
(dp2253
sS'213'
p2254
(dp2255
Vwater
p2256
(dp2257
S'food'
p2258
g6
ssVmouth
p2259
(dp2260
g2258
g6
sS'service'
p2261
g6
sssS'210'
p2262
(dp2263
sS'2847'
p2264
(dp2265
Vwaiter
p2266
(dp2267
S'food'
p2268
g45
sS'service'
p2269
g45
ssVdessert
p2270
(dp2271
g2268
g12
sS'price'
p2272
g12
sg2269
g12
ssVBirthday
p2273
(dp2274
g2268
g12
ssVsaw
p2275
(dp2276
g2268
g6
sg2272
g6
sg2269
g6
ssVgift
p2277
(dp2278
g2268
g6
sg2272
g6
sg2269
g6
sssS'2844'
p2279
(dp2280
Vrestaurant
p2281
(dp2282
S'service'
p2283
g12
sssS'2968'
p2284
(dp2285
sS'3323'
p2286
(dp2287
sS'3326'
p2288
(dp2289
sS'3043'
p2290
(dp2291
Vreasonably
p2292
(dp2293
S'food'
p2294
g6
sS'serve'
p2295
g6
ssVget
p2296
(dp2297
g2295
g6
sssS'41'
p2298
(dp2299
sS'3044'
p2300
(dp2301
sS'3046'
p2302
(dp2303
Vposts
p2304
(dp2305
S'service'
p2306
g12
sssS'2323'
p2307
(dp2308
sS'2321'
p2309
(dp2310
Vplace
p2311
(dp2312
S'atmosphere'
p2313
g12
sssS'2320'
p2314
(dp2315
Vslow
p2316
(dp2317
S'food'
p2318
g6
sS'service'
p2319
g6
ssVService
p2320
(dp2321
g2319
g6
ssVpeople
p2322
(dp2323
g2318
g12
sS'military_service'
p2324
g12
sg2319
g12
sssS'1770'
p2325
(dp2326
Vsushi
p2327
(dp2328
S'food'
p2329
g45
ssVhad
p2330
(dp2331
g2329
g6
sS'serve'
p2332
g6
sssS'2325'
p2333
(dp2334
Vavailable
p2335
(dp2336
S'food'
p2337
g6
sS'service'
p2338
g6
ssVdishes
p2339
(dp2340
g2338
g12
sssS'1778'
p2341
(dp2342
Vnothing
p2343
(dp2344
S'food'
p2345
g12
sS'atmosphere'
p2346
g12
ssVatmosphere
p2347
(dp2348
g2346
g12
sssS'334'
p2349
(dp2350
Vfood
p2351
(dp2352
S'food'
p2353
g12
ssVwas
p2354
(dp2355
g2353
g6
sS'ambiance'
p2356
g6
sssS'1676'
p2357
(dp2358
sS'3488'
p2359
(dp2360
sS'1097'
p2361
(dp2362
Vcuisine
p2363
(dp2364
S'overhaul'
p2365
g12
sS'service'
p2366
g12
ssVspot
p2367
(dp2368
g2366
g12
sssS'679'
p2369
(dp2370
sS'1093'
p2371
(dp2372
VRoth
p2373
(dp2374
S'service'
p2375
g543
ssVcity
p2376
(dp2377
S'ambiance'
p2378
g12
sg2375
g12
ssVrestaurant
p2379
(dp2380
g2375
g12
sssS'1154'
p2381
(dp2382
sS'1156'
p2383
(dp2384
VJimmy
p2385
(dp2386
S'service'
p2387
g6
sssS'1150'
p2388
(dp2389
VJimmy
p2390
(dp2391
S'service'
p2392
g6
sssS'3487'
p2393
(dp2394
sS'3171'
p2395
(dp2396
sS'260'
p2397
(dp2398
Vdish
p2399
(dp2400
S'service'
p2401
g45
sssS'3133'
p2402
(dp2403
Vphrase
p2404
(dp2405
S'service'
p2406
g12
ssVhot
p2407
(dp2408
S'food'
p2409
g6
sg2406
g6
sssS'3647'
p2410
(dp2411
sS'2998'
p2412
(dp2413
Vfood
p2414
(dp2415
S'food'
p2416
g12
ssVplace
p2417
(dp2418
g2416
g12
sS'atmosphere'
p2419
g12
ssVgarden
p2420
(dp2421
g2416
g12
sg2419
g12
sS'ambiance'
p2422
g12
sssS'2553'
p2423
(dp2424
sS'3038'
p2425
(dp2426
VStaffs
p2427
(dp2428
S'military_service'
p2429
g6
ssVfriendly
p2430
(dp2431
g2429
g6
sssS'1977'
p2432
(dp2433
sS'1556'
p2434
(dp2435
sS'2991'
p2436
(dp2437
Vsteak
p2438
(dp2439
S'food'
p2440
g45
ssVfatty
p2441
(dp2442
g2440
g6
sS'service'
p2443
g6
sssS'57'
p2444
(dp2445
sS'2492'
p2446
(dp2447
sS'3030'
p2448
(dp2449
sS'2995'
p2450
(dp2451
Vscallops
p2452
(dp2453
S'food'
p2454
g45
sssS'2390'
p2455
(dp2456
g254
(dp2457
S'food'
p2458
g6
ssVdish
p2459
(dp2460
g2458
g6
sS'service'
p2461
g6
ssVsum
p2462
(dp2463
g2458
g6
sg2461
g6
ssVsure
p2464
(dp2465
g2458
g6
ssVitem
p2466
(dp2467
g2458
g45
sg2461
g45
sssS'54'
p2468
(dp2469
VBrewery
p2470
(dp2471
S'atmosphere'
p2472
g6
sS'service'
p2473
g6
ssVway
p2474
(dp2475
g2472
g12
sssS'1411'
p2476
(dp2477
sS'2252'
p2478
(dp2479
Voblige
p2480
(dp2481
S'food'
p2482
g543
sssS'1416'
p2483
(dp2484
sS'2399'
p2485
(dp2486
Vportions
p2487
(dp2488
S'atmosphere'
p2489
g6
sssS'2779'
p2490
(dp2491
Vappetizers
p2492
(dp2493
S'food'
p2494
g12
ssVordered
p2495
(dp2496
g2494
g6
ssVgave
p2497
(dp2498
g2494
g6
sssS'1320'
p2499
(dp2500
VNothing
p2501
(dp2502
S'food'
p2503
g12
ssVobvious
p2504
(dp2505
g2503
g6
sssS'2474'
p2506
(dp2507
Vfood
p2508
(dp2509
S'food'
p2510
g12
ssVstuff
p2511
(dp2512
g2510
g12
sssS'1326'
p2513
(dp2514
Vfood
p2515
(dp2516
S'food'
p2517
g12
sS'service'
p2518
g12
ssVfresh
p2519
(dp2520
g2517
g6
sg2518
g6
ssVtreated
p2521
(dp2522
g2518
g6
sssS'3003'
p2523
(dp2524
Vfish
p2525
(dp2526
S'food'
p2527
g12
sssS'2471'
p2528
(dp2529
sS'1325'
p2530
(dp2531
Vgirlfriend
p2532
(dp2533
S'service'
p2534
g12
ssVrelaxing
p2535
(dp2536
g2534
g12
sssS'983'
p2537
(dp2538
Vlunch
p2539
(dp2540
S'food'
p2541
g6
sssS'2772'
p2542
(dp2543
Vmenu
p2544
(dp2545
S'food'
p2546
g12
sssS'2478'
p2547
(dp2548
Vdishes
p2549
(dp2550
S'service'
p2551
g45
sssS'2785'
p2552
(dp2553
Vwarm
p2554
(dp2555
S'military_service'
p2556
g6
sS'service'
p2557
g6
ssVstaff
p2558
(dp2559
g2556
g12
sssS'2780'
p2560
(dp2561
sS'2782'
p2562
(dp2563
Vaverage
p2564
(dp2565
S'food'
p2566
g12
sssS'1851'
p2567
(dp2568
sS'1857'
p2569
(dp2570
Vdrink
p2571
(dp2572
S'food'
p2573
g45
ssVspace
p2574
(dp2575
g2573
g12
sS'ambiance'
p2576
g12
sssS'2172'
p2577
(dp2578
sS'918'
p2579
(dp2580
Vgo
p2581
(dp2582
S'service'
p2583
g6
sssS'1399'
p2584
(dp2585
Vowner
p2586
(dp2587
S'service'
p2588
g12
ssVfood
p2589
(dp2590
S'food'
p2591
g12
sg2588
g12
sssS'1398'
p2592
(dp2593
Vlunch
p2594
(dp2595
S'food'
p2596
g6
sS'service'
p2597
g6
ssVit
p2598
(dp2599
g2596
g6
ssVchoice
p2600
(dp2601
g2596
g12
sg2597
g12
sssS'917'
p2602
(dp2603
Vgood
p2604
(dp2605
S'price'
p2606
g6
sS'service'
p2607
g6
ssVService
p2608
(dp2609
g2607
g6
sssS'1528'
p2610
(dp2611
Vfood
p2612
(dp2613
S'food'
p2614
g12
ssVhave
p2615
(dp2616
g2614
g543
sS'serve'
p2617
g543
sssS'913'
p2618
(dp2619
Vhall
p2620
(dp2621
S'service'
p2622
g45
ssVrestaurant
p2623
(dp2624
g2622
g12
sssS'2259'
p2625
(dp2626
Vate
p2627
(dp2628
S'food'
p2629
g6
sssS'1420'
p2630
(dp2631
sS'2258'
p2632
(dp2633
sS'2608'
p2634
(dp2635
sS'1932'
p2636
(dp2637
Vrestaurant
p2638
(dp2639
S'service'
p2640
g6
sssS'665'
p2641
(dp2642
Vrecommend
p2643
(dp2644
S'service'
p2645
g6
sssS'3262'
p2646
(dp2647
sS'2256'
p2648
(dp2649
sS'1939'
p2650
(dp2651
Vgem
p2652
(dp2653
S'food'
p2654
g12
sssS'3467'
p2655
(dp2656
Vfood
p2657
(dp2658
S'food'
p2659
g12
sssS'3464'
p2660
(dp2661
Vreading
p2662
(dp2663
S'service'
p2664
g6
sssS'3463'
p2665
(dp2666
sS'1426'
p2667
(dp2668
g254
(dp2669
S'food'
p2670
g6
ssVis
p2671
(dp2672
g2670
g6
ssVwas
p2673
(dp2674
g2670
g6
sS'ambiance'
p2675
g6
sssS'3506'
p2676
(dp2677
g254
(dp2678
S'food'
p2679
g6
sS'overhaul'
p2680
g6
ssVcuisine
p2681
(dp2682
g2680
g12
ssVthought
p2683
(dp2684
g2679
g6
sg2680
g6
sssS'848'
p2685
(dp2686
sS'2672'
p2687
(dp2688
sS'3365'
p2689
(dp2690
VOpera
p2691
(dp2692
S'service'
p2693
g6
sssS'1417'
p2694
(dp2695
sS'3511'
p2696
(dp2697
Vgentleman
p2698
(dp2699
S'service'
p2700
g45
ssVcame
p2701
(dp2702
S'food'
p2703
g6
sg2700
g6
sssS'2928'
p2704
(dp2705
Vnothing
p2706
(dp2707
S'food'
p2708
g6
sS'atmosphere'
p2709
g6
ssVProblem
p2710
(dp2711
g2709
g6
sssS'2564'
p2712
(dp2713
sS'3362'
p2714
(dp2715
Vis
p2716
(dp2717
S'food'
p2718
g6
sS'military_service'
p2719
g6
ssVpart
p2720
(dp2721
g2718
g12
sg2719
g12
sS'service'
p2722
g12
ssVfamily
p2723
(dp2724
g2719
g12
sssS'2472'
p2725
(dp2726
Vfocus
p2727
(dp2728
S'service'
p2729
g12
sssS'3215'
p2730
(dp2731
Vdisgusting
p2732
(dp2733
S'food'
p2734
g6
sssS'1985'
p2735
(dp2736
sS'1980'
p2737
(dp2738
sS'1638'
p2739
(dp2740
Vprices
p2741
(dp2742
S'monetary_value'
p2743
g6
ssVreasonable
p2744
(dp2745
S'food'
p2746
g6
sg2743
g6
sssS'1639'
p2747
(dp2748
Vlist
p2749
(dp2750
S'price'
p2751
g12
sssS'1733'
p2752
(dp2753
VDecor
p2754
(dp2755
S'service'
p2756
g6
sssS'1735'
p2757
(dp2758
sS'2499'
p2759
(dp2760
sS'980'
p2761
(dp2762
sS'568'
p2763
(dp2764
Vtried
p2765
(dp2766
S'food'
p2767
g6
ssVhe
p2768
(dp2769
g2767
g6
sssS'755'
p2770
(dp2771
sS'560'
p2772
(dp2773
Vmenu
p2774
(dp2775
S'food'
p2776
g12
ssVdiverse
p2777
(dp2778
g2776
g6
sssS'3609'
p2779
(dp2780
sS'758'
p2781
(dp2782
Vfood
p2783
(dp2784
S'food'
p2785
g12
sssS'564'
p2786
(dp2787
Vtable
p2788
(dp2789
S'food'
p2790
g12
sssS'3071'
p2791
(dp2792
Vtables
p2793
(dp2794
S'food'
p2795
g45
sssS'3072'
p2796
(dp2797
Vprompt
p2798
(dp2799
S'service'
p2800
g6
ssVService
p2801
(dp2802
g2800
g6
sssS'3073'
p2803
(dp2804
VFood
p2805
(dp2806
S'food'
p2807
g6
sssS'1590'
p2808
(dp2809
Vtime
p2810
(dp2811
S'service'
p2812
g45
sssS'2954'
p2813
(dp2814
Vneighborhood
p2815
(dp2816
S'ambiance'
p2817
g12
ssVnice
p2818
(dp2819
g2817
g6
sssS'2957'
p2820
(dp2821
Vlarge
p2822
(dp2823
S'food'
p2824
g6
sS'atmosphere'
p2825
g6
sS'service'
p2826
g6
ssVsweet
p2827
(dp2828
g2824
g6
sg2826
g6
ssVbill
p2829
(dp2830
g2824
g12
sg2826
g12
ssVfood
p2831
(dp2832
g2824
g12
sg2825
g12
sg2826
g12
ssVwaiters
p2833
(dp2834
g2826
g6
sssS'3177'
p2835
(dp2836
Vate
p2837
(dp2838
S'food'
p2839
g6
sssS'220'
p2840
(dp2841
Vwants
p2842
(dp2843
S'atmosphere'
p2844
g6
sS'military_service'
p2845
g6
ssVwho
p2846
(dp2847
g2845
g6
sssS'1024'
p2848
(dp2849
sS'1027'
p2850
(dp2851
Vsake
p2852
(dp2853
S'food'
p2854
g12
sS'service'
p2855
g12
ssVbottle
p2856
(dp2857
g2854
g45
sg2855
g45
ssVsashimi
p2858
(dp2859
g2854
g6
sssS'2210'
p2860
(dp2861
Vspicy
p2862
(dp2863
S'food'
p2864
g12
ssVtimes
p2865
(dp2866
g2864
g45
sS'service'
p2867
g45
sssS'2216'
p2868
(dp2869
Vprice
p2870
(dp2871
S'monetary_value'
p2872
g12
sssS'2215'
p2873
(dp2874
Vprices
p2875
(dp2876
S'monetary_value'
p2877
g6
ssVambience
p2878
(dp2879
S'atmosphere'
p2880
g45
sg2877
g45
ssVfun
p2881
(dp2882
g2880
g6
sg2877
g6
sS'service'
p2883
g6
ssVtasty
p2884
(dp2885
S'food'
p2886
g6
sg2880
g6
sg2877
g6
sg2883
g6
ssVfood
p2887
(dp2888
g2886
g12
sg2880
g12
sg2877
g12
sg2883
g12
sssS'2214'
p2889
(dp2890
sS'1186'
p2891
(dp2892
sS'1187'
p2893
(dp2894
Vis
p2895
(dp2896
S'food'
p2897
g6
ssVit
p2898
(dp2899
g2897
g6
sssS'390'
p2900
(dp2901
Vask
p2902
(dp2903
S'food'
p2904
g6
sssS'1748'
p2905
(dp2906
sS'723'
p2907
(dp2908
g254
(dp2909
S'food'
p2910
g6
ssVcame
p2911
(dp2912
g2910
g6
sssS'721'
p2913
(dp2914
Vit
p2915
(dp2916
S'food'
p2917
g6
ssVlooks
p2918
(dp2919
g2917
g6
sS'atmosphere'
p2920
g6
sssS'2350'
p2921
(dp2922
Vtuna
p2923
(dp2924
S'food'
p2925
g6
sssS'1742'
p2926
(dp2927
Vlive
p2928
(dp2929
S'food'
p2930
g6
sssS'151'
p2931
(dp2932
sS'1165'
p2933
(dp2934
Vit
p2935
(dp2936
S'food'
p2937
g6
ssVworth
p2938
(dp2939
g2937
g6
sS'price'
p2940
g6
sssS'2438'
p2941
(dp2942
sS'1162'
p2943
(dp2944
Vstrict
p2945
(dp2946
S'food'
p2947
g6
sS'military_service'
p2948
g6
ssVcombination
p2949
(dp2950
g2948
g12
sssS'1163'
p2951
(dp2952
Vservice
p2953
(dp2954
S'service'
p2955
g6
sssS'1207'
p2956
(dp2957
Vtuna
p2958
(dp2959
S'food'
p2960
g45
ssVgari
p2961
(dp2962
g2960
g6
sS'service'
p2963
g6
sssS'1168'
p2964
(dp2965
sS'1169'
p2966
(dp2967
Vbills
p2968
(dp2969
S'service'
p2970
g12
sssS'2435'
p2971
(dp2972
g254
(dp2973
S'food'
p2974
g6
ssVrecommend
p2975
(dp2976
g2974
g6
sS'service'
p2977
g6
sssS'959'
p2978
(dp2979
Vatmosphere
p2980
(dp2981
S'atmosphere'
p2982
g12
ssVfriendly
p2983
(dp2984
g2982
g6
sS'military_service'
p2985
g6
sS'service'
p2986
g6
ssVservice
p2987
(dp2988
g2982
g6
sg2986
g6
sssS'1366'
p2989
(dp2990
Vgrace
p2991
(dp2992
S'atmosphere'
p2993
g12
ssVdrinks
p2994
(dp2995
S'food'
p2996
g6
sg2993
g6
sssS'47'
p2997
(dp2998
Vplace
p2999
(dp3000
S'atmosphere'
p3001
g12
ssVworth
p3002
(dp3003
g3001
g6
sS'price'
p3004
g6
sssS'637'
p3005
(dp3006
Vrooms
p3007
(dp3008
S'military_service'
p3009
g45
sssS'42'
p3010
(dp3011
VHEARTLAND
p3012
(dp3013
S'ambiance'
p3014
g6
sssS'87'
p3015
(dp3016
sS'1447'
p3017
(dp3018
Vthirsty
p3019
(dp3020
S'food'
p3021
g6
ssVHe
p3022
(dp3023
g3021
g6
sssS'1299'
p3024
(dp3025
sS'639'
p3026
(dp3027
sS'1119'
p3028
(dp3029
Vmenu
p3030
(dp3031
S'food'
p3032
g12
sS'atmosphere'
p3033
g12
ssVmade
p3034
(dp3035
g3032
g6
sg3033
g6
sS'service'
p3036
g6
ssVplace
p3037
(dp3038
g3033
g12
ssVspecial
p3039
(dp3040
g3032
g6
sg3033
g6
sssS'934'
p3041
(dp3042
Vmeat
p3043
(dp3044
S'food'
p3045
g6
sssS'1297'
p3046
(dp3047
Vrude
p3048
(dp3049
S'food'
p3050
g6
sssS'1566'
p3051
(dp3052
sS'1295'
p3053
(dp3054
Vservice
p3055
(dp3056
S'service'
p3057
g45
sssS'1558'
p3058
(dp3059
Vdeal
p3060
(dp3061
S'service'
p3062
g6
sssS'2004'
p3063
(dp3064
Vgo
p3065
(dp3066
S'service'
p3067
g6
sssS'1782'
p3068
(dp3069
sS'484'
p3070
(dp3071
sS'482'
p3072
(dp3073
sS'3428'
p3074
(dp3075
Vbe
p3076
(dp3077
S'food'
p3078
g6
sssS'1808'
p3079
(dp3080
Vtaste
p3081
(dp3082
S'food'
p3083
g6
sS'service'
p3084
g6
ssVmouth
p3085
(dp3086
g3083
g12
sg3084
g12
ssVit
p3087
(dp3088
g3083
g6
ssVservice
p3089
(dp3090
g3083
g45
sg3084
g45
sssS'2002'
p3091
(dp3092
sS'470'
p3093
(dp3094
sS'2007'
p3095
(dp3096
sS'474'
p3097
(dp3098
sS'479'
p3099
(dp3100
Vworld
p3101
(dp3102
S'food'
p3103
g45
sss.